(isym
Lib
p0
(dp1
S'nest'
p2
(lp3
sS'type'
p4
S'lib'
p5
sS'attr'
p6
(dp7
Vuart
p8
(isym
Hw
p9
(dp10
g2
(lp11
sg4
S'hw'
p12
sg6
(dp13
VUART_HandleTypeDef
p14
(isym
Struct
p15
(dp16
g2
(lp17
sg4
S'struct'
p18
sg6
(dp19
VInstance
p20
(isym
Var
p21
(dp22
g2
(lp23
(isym
Const
p24
(dp25
g2
(lp26
sg4
S'const'
p27
sg6
(dp28
sS'value'
p29
VUSART1
p30
sba(isym
Const
p31
(dp32
g2
(lp33
sg4
S'const'
p34
sg6
(dp35
sg29
VUSART2
p36
sba(isym
Const
p37
(dp38
g2
(lp39
sg4
S'const'
p40
sg6
(dp41
sg29
VUSART3
p42
sbasg4
S'var'
p43
sg6
(dp44
sg29
g20
sbsVInit
p45
(isym
Struct
p46
(dp47
g2
(lp48
sg4
S'struct'
p49
sg6
(dp50
VParity
p51
(isym
Var
p52
(dp53
g2
(lp54
(isym
Const
p55
(dp56
g2
(lp57
sg4
S'const'
p58
sg6
(dp59
sg29
VUART_PARITY_NONE
p60
sba(isym
Const
p61
(dp62
g2
(lp63
sg4
S'const'
p64
sg6
(dp65
sg29
VUART_PARITY_EVEN
p66
sbasg4
S'var'
p67
sg6
(dp68
sg29
g51
sbsVBaudRate
p69
(isym
Var
p70
(dp71
g2
(lp72
(isym
Integer
p73
(dp74
g2
(lp75
sg4
S'integer'
p76
sg6
(dp77
sg29
I115200
sba(isym
Integer
p78
(dp79
g2
(lp80
sg4
S'integer'
p81
sg6
(dp82
sg29
I9600
sba(isym
Integer
p83
(dp84
g2
(lp85
sg4
S'integer'
p86
sg6
(dp87
sg29
I2400
sbasg4
S'var'
p88
sg6
(dp89
sg29
g69
sbsVOverSampling
p90
(isym
Var
p91
(dp92
g2
(lp93
(isym
Const
p94
(dp95
g2
(lp96
sg4
S'const'
p97
sg6
(dp98
sg29
VUART_OVERSAMPLING_16
p99
sbasg4
S'var'
p100
sg6
(dp101
sg29
g90
sbsVMode
p102
(isym
Var
p103
(dp104
g2
(lp105
sg4
S'var'
p106
sg6
(dp107
Vdoc
p108
(isym
String
p109
(dp110
g2
(lp111
sg4
S'string'
p112
sg6
(dp113
sg29
VTx/Rx/both
p114
sbssg29
g102
sbsVStopBits
p115
(isym
Var
p116
(dp117
g2
(lp118
(isym
Const
p119
(dp120
g2
(lp121
sg4
S'const'
p122
sg6
(dp123
sg29
VUART_STOPBITS_1
p124
sbasg4
S'var'
p125
sg6
(dp126
sg29
g115
sbsVWordLength
p127
(isym
Var
p128
(dp129
g2
(lp130
(isym
Const
p131
(dp132
g2
(lp133
sg4
S'const'
p134
sg6
(dp135
sg29
VUART_WORDLENGTH_8B
p136
sba(isym
Const
p137
(dp138
g2
(lp139
sg4
S'const'
p140
sg6
(dp141
sg29
VUART_WORDLENGTH_9B
p142
sbasg4
S'var'
p143
sg6
(dp144
sg29
g127
sbsVHwFlowCtl
p145
(isym
Var
p146
(dp147
g2
(lp148
(isym
Const
p149
(dp150
g2
(lp151
sg4
S'const'
p152
sg6
(dp153
sg29
VUART_HWCONTROL_NONE
p154
sbasg4
S'var'
p155
sg6
(dp156
sg29
g145
sbssg29
g45
sbssg29
g14
sbsVMX_USART2_UART_Init
p157
(isym
Fn
p158
(dp159
g2
(lp160
sg4
S'fn'
p161
sg6
(dp162
sg29
g157
sbsVMX_USART1_UART_Init
p163
(isym
Fn
p164
(dp165
g2
(lp166
sg4
S'fn'
p167
sg6
(dp168
sg29
g163
sbsVMX_USART3_UART_Init
p169
(isym
Fn
p170
(dp171
g2
(lp172
sg4
S'fn'
p173
sg6
(dp174
sg29
g169
sbssg29
g8
sbsVdoc
p175
(isym
String
p176
(dp177
g2
(lp178
sg4
S'string'
p179
sg6
(dp180
sg29
VSTM32 HAL library and CubeMX generated code model
p181
sbsVSrc
p182
(isym
Dir
p183
(dp184
g2
(lp185
sg4
S'dir'
p186
sg6
(dp187
Vusart.c
p188
(isym
File
p189
(dp190
g2
(lp191
sg4
S'file'
p192
sg6
(dp193
VUART_HandleTypeDef
p194
(isym
Struct
p195
(dp196
g2
(lp197
sg4
S'struct'
p198
sg6
(dp199
Vhuart2
p200
(isym
Symbol
p201
(dp202
g2
(lp203
sg4
S'symbol'
p204
sg6
(dp205
sg29
g200
sbsVhuart3
p206
(isym
Symbol
p207
(dp208
g2
(lp209
sg4
S'symbol'
p210
sg6
(dp211
sg29
g206
sbsVhuart1
p212
(isym
Symbol
p213
(dp214
g2
(lp215
sg4
S'symbol'
p216
sg6
(dp217
sg29
g212
sbssg29
g194
sbsVMX_USART2_UART_Init
p218
(isym
Fn
p219
(dp220
g2
(lp221
sg4
S'fn'
p222
sg6
(dp223
sg29
g218
sbsVMX_USART1_UART_Init
p224
(isym
Fn
p225
(dp226
g2
(lp227
sg4
S'fn'
p228
sg6
(dp229
sg29
g224
sbsVMX_USART3_UART_Init
p230
(isym
Fn
p231
(dp232
g2
(lp233
sg4
S'fn'
p234
sg6
(dp235
sg29
g230
sbssg29
g188
sbsVmain.c
p236
(isym
File
p237
(dp238
g2
(lp239
sg4
S'file'
p240
sg6
(dp241
VError_Handler
p242
(isym
Fn
p243
(dp244
g2
(lp245
sg4
S'fn'
p246
sg6
(dp247
sg29
g242
sbsVmain
p248
(isym
Fn
p249
(dp250
g2
(lp251
sg4
S'fn'
p252
sg6
(dp253
VHAL_UART_Transmit
p254
(isym
Fn
p255
(dp256
g2
(lp257
sg4
S'fn'
p258
sg6
(dp259
sg29
g254
sbsVIWDG_Refresh
p260
(isym
Fn
p261
(dp262
g2
(lp263
sg4
S'fn'
p264
sg6
(dp265
sg29
g260
sbsVHAL_Init
p266
(isym
Fn
p267
(dp268
g2
(lp269
sg4
S'fn'
p270
sg6
(dp271
sg29
g266
sbsVMX_USART1_UART_Init
p272
(isym
Fn
p273
(dp274
g2
(lp275
sg4
S'fn'
p276
sg6
(dp277
sg29
g272
sbsVMX_RTC_Init
p278
(isym
Fn
p279
(dp280
g2
(lp281
sg4
S'fn'
p282
sg6
(dp283
sg29
g278
sbsVHAL_GPIO_TogglePin
p284
(isym
Fn
p285
(dp286
g2
(lp287
sg4
S'fn'
p288
sg6
(dp289
sg29
g284
sbsVMX_USART3_UART_Init
p290
(isym
Fn
p291
(dp292
g2
(lp293
sg4
S'fn'
p294
sg6
(dp295
sg29
g290
sbsVMX_GPIO_Init
p296
(isym
Fn
p297
(dp298
g2
(lp299
sg4
S'fn'
p300
sg6
(dp301
sg29
g296
sbsVHAL_GPIO_WritePin
p302
(isym
Fn
p303
(dp304
g2
(lp305
sg4
S'fn'
p306
sg6
(dp307
sg29
g302
sbsVMX_USART2_UART_Init
p308
(isym
Fn
p309
(dp310
g2
(lp311
sg4
S'fn'
p312
sg6
(dp313
sg29
g308
sbsVSystemClock_Config
p314
(isym
Fn
p315
(dp316
g2
(lp317
sg4
S'fn'
p318
sg6
(dp319
sg29
g314
sbssg29
g248
sbsVSystemClock_Config
p320
(isym
Fn
p321
(dp322
g2
(lp323
sg4
S'fn'
p324
sg6
(dp325
sg29
g320
sbsVassert_failed
p326
(isym
Fn
p327
(dp328
g2
(lp329
sg4
S'fn'
p330
sg6
(dp331
sg29
g326
sbssg29
g236
sbssg29
g182
sbsVSECTIONS
p332
(isym
Symbol
p333
(dp334
g2
(lp335
sg4
S'symbol'
p336
sg6
(dp337
V.rodata
p338
(isym
String
p339
(dp340
g2
(lp341
sg4
S'string'
p342
sg6
(dp343
sg29
g338
sbsV.preinit_array
p344
(isym
String
p345
(dp346
g2
(lp347
sg4
S'string'
p348
sg6
(dp349
sg29
g344
sbsV.init_array
p350
(isym
String
p351
(dp352
g2
(lp353
sg4
S'string'
p354
sg6
(dp355
sg29
g350
sbsV.fini_array
p356
(isym
String
p357
(dp358
g2
(lp359
sg4
S'string'
p360
sg6
(dp361
sg29
g356
sbsV.isr_vector
p362
(isym
String
p363
(dp364
g2
(lp365
sg4
S'string'
p366
sg6
(dp367
sg29
g362
sbsV.bss
p368
(isym
String
p369
(dp370
g2
(lp371
sg4
S'string'
p372
sg6
(dp373
sg29
g368
sbsV.data
p374
(isym
String
p375
(dp376
g2
(lp377
sg4
S'string'
p378
sg6
(dp379
sg29
g374
sbsV.text
p380
(isym
String
p381
(dp382
g2
(lp383
sg4
S'string'
p384
sg6
(dp385
sg29
g380
sbssg29
g332
sbsVMEMORY
p386
(isym
Group
p387
(dp388
g2
(lp389
sg4
S'group'
p390
sg6
(dp391
VRAM
p392
(isym
Symbol
p393
(dp394
g2
(lp395
sg4
S'symbol'
p396
sg6
(dp397
VORIGIN
p398
(isym
Symbol
p399
(dp400
g2
(lp401
sg4
S'symbol'
p402
sg6
(dp403
sg29
g398
sbsVLENGTH
p404
(isym
Symbol
p405
(dp406
g2
(lp407
sg4
S'symbol'
p408
sg6
(dp409
sg29
g404
sbssg29
g392
sbsVFLASH
p410
(isym
Symbol
p411
(dp412
g2
(lp413
sg4
S'symbol'
p414
sg6
(dp415
VORIGIN
p416
(isym
Symbol
p417
(dp418
g2
(lp419
sg4
S'symbol'
p420
sg6
(dp421
sg29
g416
sbsVLENGTH
p422
(isym
Symbol
p423
(dp424
g2
(lp425
sg4
S'symbol'
p426
sg6
(dp427
sg29
g422
sbssg29
g410
sbssg29
g386
sbssg29
VSTM32HAL
p428
sb.