(isym
Lib
p0
(dp1
S'nest'
p2
(lp3
sS'type'
p4
S'lib'
p5
sS'attr'
p6
(dp7
Vuart
p8
(isym
Hw
p9
(dp10
g2
(lp11
sg4
S'hw'
p12
sg6
(dp13
VHAL_UART_RxCpltCallback
p14
(isym
Fn
p15
(dp16
g2
(lp17
sg4
S'fn'
p18
sg6
(dp19
Vdoc
p20
(isym
String
p21
(dp22
g2
(lp23
sg4
S'string'
p24
sg6
(dp25
sS'value'
p26
VRx Complete Callback
p27
sbssg26
VHAL_UART_RxCpltCallback
p28
sbsVMX_USART1_UART_Init
p29
(isym
Fn
p30
(dp31
g2
(lp32
sg4
S'fn'
p33
sg6
(dp34
sg26
g29
sbsVdoc
p35
(isym
Vector
p36
(dp37
g2
(lp38
(isym
Url
p39
(dp40
g2
(lp41
sg4
S'url'
p42
sg6
(dp43
sg26
Vhttps://evaluationboard.ru/uart_adc/
p44
sbasg4
S'vector'
p45
sg6
(dp46
sg26
Vdoc
p47
sbsVHAL_UART_TxCpltCallback
p48
(isym
Fn
p49
(dp50
g2
(lp51
sg4
S'fn'
p52
sg6
(dp53
Vdoc
p54
(isym
String
p55
(dp56
g2
(lp57
sg4
S'string'
p58
sg6
(dp59
sg26
VTx Complete Callback
p60
sbssg26
g48
sbsVMX_USART3_UART_Init
p61
(isym
Fn
p62
(dp63
g2
(lp64
sg4
S'fn'
p65
sg6
(dp66
sg26
g61
sbsVUART_HandleTypeDef
p67
(isym
Struct
p68
(dp69
g2
(lp70
sg4
S'struct'
p71
sg6
(dp72
VInstance
p73
(isym
Var
p74
(dp75
g2
(lp76
(isym
Const
p77
(dp78
g2
(lp79
sg4
S'const'
p80
sg6
(dp81
sg26
VUSART1
p82
sba(isym
Const
p83
(dp84
g2
(lp85
sg4
S'const'
p86
sg6
(dp87
sg26
VUSART2
p88
sba(isym
Const
p89
(dp90
g2
(lp91
sg4
S'const'
p92
sg6
(dp93
sg26
VUSART3
p94
sbasg4
S'var'
p95
sg6
(dp96
sg26
g73
sbsVInit
p97
(isym
Struct
p98
(dp99
g2
(lp100
sg4
S'struct'
p101
sg6
(dp102
VParity
p103
(isym
Var
p104
(dp105
g2
(lp106
(isym
Const
p107
(dp108
g2
(lp109
sg4
S'const'
p110
sg6
(dp111
sg26
VUART_PARITY_NONE
p112
sba(isym
Const
p113
(dp114
g2
(lp115
sg4
S'const'
p116
sg6
(dp117
sg26
VUART_PARITY_EVEN
p118
sbasg4
S'var'
p119
sg6
(dp120
sg26
g103
sbsVBaudRate
p121
(isym
Var
p122
(dp123
g2
(lp124
(isym
Integer
p125
(dp126
g2
(lp127
sg4
S'integer'
p128
sg6
(dp129
sg26
I115200
sba(isym
Integer
p130
(dp131
g2
(lp132
sg4
S'integer'
p133
sg6
(dp134
sg26
I9600
sba(isym
Integer
p135
(dp136
g2
(lp137
sg4
S'integer'
p138
sg6
(dp139
sg26
I2400
sbasg4
S'var'
p140
sg6
(dp141
sg26
g121
sbsVOverSampling
p142
(isym
Var
p143
(dp144
g2
(lp145
(isym
Const
p146
(dp147
g2
(lp148
sg4
S'const'
p149
sg6
(dp150
sg26
VUART_OVERSAMPLING_16
p151
sbasg4
S'var'
p152
sg6
(dp153
sg26
g142
sbsVMode
p154
(isym
Var
p155
(dp156
g2
(lp157
sg4
S'var'
p158
sg6
(dp159
Vdoc
p160
(isym
String
p161
(dp162
g2
(lp163
sg4
S'string'
p164
sg6
(dp165
sg26
VTx/Rx/both
p166
sbssg26
g154
sbsVStopBits
p167
(isym
Var
p168
(dp169
g2
(lp170
(isym
Const
p171
(dp172
g2
(lp173
sg4
S'const'
p174
sg6
(dp175
sg26
VUART_STOPBITS_1
p176
sbasg4
S'var'
p177
sg6
(dp178
sg26
g167
sbsVWordLength
p179
(isym
Var
p180
(dp181
g2
(lp182
(isym
Const
p183
(dp184
g2
(lp185
sg4
S'const'
p186
sg6
(dp187
sg26
VUART_WORDLENGTH_8B
p188
sba(isym
Const
p189
(dp190
g2
(lp191
sg4
S'const'
p192
sg6
(dp193
sg26
VUART_WORDLENGTH_9B
p194
sbasg4
S'var'
p195
sg6
(dp196
sg26
g179
sbsVHwFlowCtl
p197
(isym
Var
p198
(dp199
g2
(lp200
(isym
Const
p201
(dp202
g2
(lp203
sg4
S'const'
p204
sg6
(dp205
sg26
VUART_HWCONTROL_NONE
p206
sbasg4
S'var'
p207
sg6
(dp208
sg26
g197
sbssg26
g97
sbssg26
g67
sbsVHAL_UART_MspDeInit
p209
(isym
Fn
p210
(dp211
g2
(lp212
sg4
S'fn'
p213
sg6
(dp214
sg26
g209
sbsVMX_USART2_UART_Init
p215
(isym
Fn
p216
(dp217
g2
(lp218
sg4
S'fn'
p219
sg6
(dp220
sg26
g215
sbsVHAL_UART_MspInit
p221
(isym
Fn
p222
(dp223
g2
(lp224
sg4
S'fn'
p225
sg6
(dp226
sg26
g221
sbssg26
g8
sbsVdoc
p227
(isym
String
p228
(dp229
g2
(lp230
sg4
S'string'
p231
sg6
(dp232
sg26
VSTM32 HAL library and CubeMX generated code model
p233
sbsVSrc
p234
(isym
Dir
p235
(dp236
g2
(lp237
sg4
S'dir'
p238
sg6
(dp239
Vusart.c
p240
(isym
File
p241
(dp242
g2
(lp243
sg4
S'file'
p244
sg6
(dp245
VUART_HandleTypeDef
p246
(isym
Struct
p247
(dp248
g2
(lp249
sg4
S'struct'
p250
sg6
(dp251
Vhuart2
p252
(isym
Symbol
p253
(dp254
g2
(lp255
sg4
S'symbol'
p256
sg6
(dp257
sg26
g252
sbsVhuart3
p258
(isym
Symbol
p259
(dp260
g2
(lp261
sg4
S'symbol'
p262
sg6
(dp263
sg26
g258
sbsVhuart1
p264
(isym
Symbol
p265
(dp266
g2
(lp267
sg4
S'symbol'
p268
sg6
(dp269
sg26
g264
sbssg26
g246
sbsVMX_USART2_UART_Init
p270
(isym
Fn
p271
(dp272
g2
(lp273
sg4
S'fn'
p274
sg6
(dp275
sg26
g270
sbsVMX_USART1_UART_Init
p276
(isym
Fn
p277
(dp278
g2
(lp279
sg4
S'fn'
p280
sg6
(dp281
sg26
g276
sbsVMX_USART3_UART_Init
p282
(isym
Fn
p283
(dp284
g2
(lp285
sg4
S'fn'
p286
sg6
(dp287
sg26
g282
sbssg26
g240
sbsVmain.c
p288
(isym
File
p289
(dp290
g2
(lp291
sg4
S'file'
p292
sg6
(dp293
VError_Handler
p294
(isym
Fn
p295
(dp296
g2
(lp297
sg4
S'fn'
p298
sg6
(dp299
sg26
g294
sbsVmain
p300
(isym
Fn
p301
(dp302
g2
(lp303
sg4
S'fn'
p304
sg6
(dp305
VHAL_UART_Transmit
p306
(isym
Fn
p307
(dp308
g2
(lp309
sg4
S'fn'
p310
sg6
(dp311
sg26
g306
sbsVIWDG_Refresh
p312
(isym
Fn
p313
(dp314
g2
(lp315
sg4
S'fn'
p316
sg6
(dp317
sg26
g312
sbsVHAL_Init
p318
(isym
Fn
p319
(dp320
g2
(lp321
sg4
S'fn'
p322
sg6
(dp323
sg26
g318
sbsVMX_USART1_UART_Init
p324
(isym
Fn
p325
(dp326
g2
(lp327
sg4
S'fn'
p328
sg6
(dp329
sg26
g324
sbsVMX_RTC_Init
p330
(isym
Fn
p331
(dp332
g2
(lp333
sg4
S'fn'
p334
sg6
(dp335
sg26
g330
sbsVHAL_GPIO_TogglePin
p336
(isym
Fn
p337
(dp338
g2
(lp339
sg4
S'fn'
p340
sg6
(dp341
sg26
g336
sbsVMX_USART3_UART_Init
p342
(isym
Fn
p343
(dp344
g2
(lp345
sg4
S'fn'
p346
sg6
(dp347
sg26
g342
sbsVMX_GPIO_Init
p348
(isym
Fn
p349
(dp350
g2
(lp351
sg4
S'fn'
p352
sg6
(dp353
sg26
g348
sbsVHAL_GPIO_WritePin
p354
(isym
Fn
p355
(dp356
g2
(lp357
sg4
S'fn'
p358
sg6
(dp359
sg26
g354
sbsVMX_USART2_UART_Init
p360
(isym
Fn
p361
(dp362
g2
(lp363
sg4
S'fn'
p364
sg6
(dp365
sg26
g360
sbsVSystemClock_Config
p366
(isym
Fn
p367
(dp368
g2
(lp369
sg4
S'fn'
p370
sg6
(dp371
sg26
g366
sbssg26
g300
sbsVSystemClock_Config
p372
(isym
Fn
p373
(dp374
g2
(lp375
sg4
S'fn'
p376
sg6
(dp377
sg26
g372
sbsVassert_failed
p378
(isym
Fn
p379
(dp380
g2
(lp381
sg4
S'fn'
p382
sg6
(dp383
sg26
g378
sbssg26
g288
sbssg26
g234
sbsVSECTIONS
p384
(isym
Symbol
p385
(dp386
g2
(lp387
sg4
S'symbol'
p388
sg6
(dp389
V.rodata
p390
(isym
String
p391
(dp392
g2
(lp393
sg4
S'string'
p394
sg6
(dp395
sg26
g390
sbsV.preinit_array
p396
(isym
String
p397
(dp398
g2
(lp399
sg4
S'string'
p400
sg6
(dp401
sg26
g396
sbsV.init_array
p402
(isym
String
p403
(dp404
g2
(lp405
sg4
S'string'
p406
sg6
(dp407
sg26
g402
sbsV.fini_array
p408
(isym
String
p409
(dp410
g2
(lp411
sg4
S'string'
p412
sg6
(dp413
sg26
g408
sbsV.isr_vector
p414
(isym
String
p415
(dp416
g2
(lp417
sg4
S'string'
p418
sg6
(dp419
sg26
g414
sbsV.bss
p420
(isym
String
p421
(dp422
g2
(lp423
sg4
S'string'
p424
sg6
(dp425
sg26
g420
sbsV.data
p426
(isym
String
p427
(dp428
g2
(lp429
sg4
S'string'
p430
sg6
(dp431
sg26
g426
sbsV.text
p432
(isym
String
p433
(dp434
g2
(lp435
sg4
S'string'
p436
sg6
(dp437
sg26
g432
sbssg26
g384
sbsVMEMORY
p438
(isym
Group
p439
(dp440
g2
(lp441
sg4
S'group'
p442
sg6
(dp443
VRAM
p444
(isym
Symbol
p445
(dp446
g2
(lp447
sg4
S'symbol'
p448
sg6
(dp449
VORIGIN
p450
(isym
Symbol
p451
(dp452
g2
(lp453
sg4
S'symbol'
p454
sg6
(dp455
sg26
g450
sbsVLENGTH
p456
(isym
Symbol
p457
(dp458
g2
(lp459
sg4
S'symbol'
p460
sg6
(dp461
sg26
g456
sbssg26
g444
sbsVFLASH
p462
(isym
Symbol
p463
(dp464
g2
(lp465
sg4
S'symbol'
p466
sg6
(dp467
VORIGIN
p468
(isym
Symbol
p469
(dp470
g2
(lp471
sg4
S'symbol'
p472
sg6
(dp473
sg26
g468
sbsVLENGTH
p474
(isym
Symbol
p475
(dp476
g2
(lp477
sg4
S'symbol'
p478
sg6
(dp479
sg26
g474
sbssg26
g462
sbssg26
g438
sbssg26
VSTM32HAL
p480
sb.