(isym
Lib
p0
(dp1
S'nest'
p2
(lp3
sS'type'
p4
S'lib'
p5
sS'attr'
p6
(dp7
Vdoc
p8
(isym
String
p9
(dp10
g2
(lp11
sg4
S'string'
p12
sg6
(dp13
sS'value'
p14
VSTM32 HAL library and CubeMX generated code model
p15
sbsVSrc
p16
(isym
Dir
p17
(dp18
g2
(lp19
sg4
S'dir'
p20
sg6
(dp21
Vmain.c
p22
(isym
File
p23
(dp24
g2
(lp25
sg4
S'file'
p26
sg6
(dp27
VError_Handler
p28
(isym
Fn
p29
(dp30
g2
(lp31
sg4
S'fn'
p32
sg6
(dp33
sg14
g28
sbsVmain
p34
(isym
Fn
p35
(dp36
g2
(lp37
sg4
S'fn'
p38
sg6
(dp39
VHAL_UART_Transmit
p40
(isym
Fn
p41
(dp42
g2
(lp43
sg4
S'fn'
p44
sg6
(dp45
sg14
g40
sbsVIWDG_Refresh
p46
(isym
Fn
p47
(dp48
g2
(lp49
sg4
S'fn'
p50
sg6
(dp51
sg14
g46
sbsVHAL_Init
p52
(isym
Fn
p53
(dp54
g2
(lp55
sg4
S'fn'
p56
sg6
(dp57
sg14
g52
sbsVMX_USART1_UART_Init
p58
(isym
Fn
p59
(dp60
g2
(lp61
sg4
S'fn'
p62
sg6
(dp63
sg14
g58
sbsVMX_RTC_Init
p64
(isym
Fn
p65
(dp66
g2
(lp67
sg4
S'fn'
p68
sg6
(dp69
sg14
g64
sbsVHAL_GPIO_TogglePin
p70
(isym
Fn
p71
(dp72
g2
(lp73
sg4
S'fn'
p74
sg6
(dp75
sg14
g70
sbsVMX_USART3_UART_Init
p76
(isym
Fn
p77
(dp78
g2
(lp79
sg4
S'fn'
p80
sg6
(dp81
sg14
g76
sbsVMX_GPIO_Init
p82
(isym
Fn
p83
(dp84
g2
(lp85
sg4
S'fn'
p86
sg6
(dp87
sg14
g82
sbsVHAL_GPIO_WritePin
p88
(isym
Fn
p89
(dp90
g2
(lp91
sg4
S'fn'
p92
sg6
(dp93
sg14
g88
sbsVMX_USART2_UART_Init
p94
(isym
Fn
p95
(dp96
g2
(lp97
sg4
S'fn'
p98
sg6
(dp99
sg14
g94
sbsVSystemClock_Config
p100
(isym
Fn
p101
(dp102
g2
(lp103
sg4
S'fn'
p104
sg6
(dp105
sg14
g100
sbssg14
g34
sbsVSystemClock_Config
p106
(isym
Fn
p107
(dp108
g2
(lp109
sg4
S'fn'
p110
sg6
(dp111
sg14
g106
sbsVassert_failed
p112
(isym
Fn
p113
(dp114
g2
(lp115
sg4
S'fn'
p116
sg6
(dp117
sg14
g112
sbssg14
g22
sbssg14
g16
sbsVSECTIONS
p118
(isym
Symbol
p119
(dp120
g2
(lp121
sg4
S'symbol'
p122
sg6
(dp123
V.rodata
p124
(isym
String
p125
(dp126
g2
(lp127
sg4
S'string'
p128
sg6
(dp129
sg14
g124
sbsV.preinit_array
p130
(isym
String
p131
(dp132
g2
(lp133
sg4
S'string'
p134
sg6
(dp135
sg14
g130
sbsV.init_array
p136
(isym
String
p137
(dp138
g2
(lp139
sg4
S'string'
p140
sg6
(dp141
sg14
g136
sbsV.fini_array
p142
(isym
String
p143
(dp144
g2
(lp145
sg4
S'string'
p146
sg6
(dp147
sg14
g142
sbsV.isr_vector
p148
(isym
String
p149
(dp150
g2
(lp151
sg4
S'string'
p152
sg6
(dp153
sg14
g148
sbsV.bss
p154
(isym
String
p155
(dp156
g2
(lp157
sg4
S'string'
p158
sg6
(dp159
sg14
g154
sbsV.data
p160
(isym
String
p161
(dp162
g2
(lp163
sg4
S'string'
p164
sg6
(dp165
sg14
g160
sbsV.text
p166
(isym
String
p167
(dp168
g2
(lp169
sg4
S'string'
p170
sg6
(dp171
sg14
g166
sbssg14
g118
sbsVMEMORY
p172
(isym
Group
p173
(dp174
g2
(lp175
sg4
S'group'
p176
sg6
(dp177
VRAM
p178
(isym
Symbol
p179
(dp180
g2
(lp181
sg4
S'symbol'
p182
sg6
(dp183
VORIGIN
p184
(isym
Symbol
p185
(dp186
g2
(lp187
sg4
S'symbol'
p188
sg6
(dp189
sg14
g184
sbsVLENGTH
p190
(isym
Symbol
p191
(dp192
g2
(lp193
sg4
S'symbol'
p194
sg6
(dp195
sg14
g190
sbssg14
g178
sbsVFLASH
p196
(isym
Symbol
p197
(dp198
g2
(lp199
sg4
S'symbol'
p200
sg6
(dp201
VORIGIN
p202
(isym
Symbol
p203
(dp204
g2
(lp205
sg4
S'symbol'
p206
sg6
(dp207
sg14
g202
sbsVLENGTH
p208
(isym
Symbol
p209
(dp210
g2
(lp211
sg4
S'symbol'
p212
sg6
(dp213
sg14
g208
sbssg14
g196
sbssg14
g172
sbssg14
VSTM32HAL
p214
sb.