(i__main__
Voc
p0
(dp1
S'nest'
p2
(lp3
(i__main__
Frame
p4
(dp5
g2
(lp6
(i__main__
URL
p7
(dp8
g2
(lp9
sS'attr'
p10
(dp11
sS'value'
p12
S'https://en.wikipedia.org/wiki/Marvin_Minsky'
p13
sbasg10
(dp14
S'first_name'
p15
(i__main__
Frame
p16
(dp17
g2
(lp18
sg10
(dp19
sg12
S'Marvin'
p20
sbsS'last_name'
p21
(i__main__
Frame
p22
(dp23
g2
(lp24
sg10
(dp25
sg12
S'Minsky'
p26
sbssg12
S'marvin'
p27
sbasg10
(dp28
sg12
S'global'
p29
sb.