(i__main__
Map
p0
(dp1
S'nest'
p2
(lp3
sS'type'
p4
S'map'
p5
sS'attr'
p6
(dp7
S'LOAD'
p8
(i__main__
Fn
p9
(dp10
S'fn'
p11
c__main__
LOAD
p12
sg2
(lp13
sg4
S'fn'
p14
sg6
(dp15
sS'value'
p16
g8
sbsS'??'
p17
(i__main__
Fn
p18
(dp19
g11
c__main__
qq
p20
sg2
(lp21
sg4
S'fn'
p22
sg6
(dp23
sg16
S'qq'
p24
sbsS'pi'
p25
(i__main__
Number
p26
(dp27
g2
(lp28
sg4
S'number'
p29
sg6
(dp30
sg16
F3.141592653589793
sbsS'e'
p31
(i__main__
Number
p32
(dp33
g2
(lp34
sg4
S'number'
p35
sg6
(dp36
sg16
F2.718281828459045
sbsS'.'
p37
(i__main__
Fn
p38
(dp39
g11
c__main__
dot
p40
sg2
(lp41
sg4
S'fn'
p42
sg6
(dp43
sg16
S'dot'
p44
sbsS'SAVE'
p45
(i__main__
Fn
p46
(dp47
g11
c__main__
SAVE
p48
sg2
(lp49
sg4
S'fn'
p50
sg6
(dp51
sg16
g45
sbsS'='
p52
(i__main__
Fn
p53
(dp54
g11
c__main__
EQ
p55
sg2
(lp56
sg4
S'fn'
p57
sg6
(dp58
sg16
S'EQ'
p59
sbsS'?'
p60
(i__main__
Fn
p61
(dp62
g11
c__main__
q
p63
sg2
(lp64
sg4
S'fn'
p65
sg6
(dp66
sg16
S'q'
p67
sbssg16
S'FORTH'
p68
sb.