(i__main__
Map
p0
(dp1
S'nest'
p2
(lp3
sS'type'
p4
S'map'
p5
sS'attr'
p6
(dp7
S'LOAD'
p8
(i__main__
Fn
p9
(dp10
S'fn'
p11
c__main__
LOAD
p12
sg2
(lp13
sg4
S'fn'
p14
sg6
(dp15
sS'value'
p16
g8
sbsS'??'
p17
(i__main__
Fn
p18
(dp19
g11
c__main__
qq
p20
sg2
(lp21
sg4
S'fn'
p22
sg6
(dp23
sg16
S'qq'
p24
sbsS'SAVE'
p25
(i__main__
Fn
p26
(dp27
g11
c__main__
SAVE
p28
sg2
(lp29
sg4
S'fn'
p30
sg6
(dp31
sg16
g25
sbsS'?'
p32
(i__main__
Fn
p33
(dp34
g11
c__main__
q
p35
sg2
(lp36
sg4
S'fn'
p37
sg6
(dp38
sg16
S'q'
p39
sbssg16
S'FORTH'
p40
sb.