(i__main__
Map
p0
(dp1
S'nest'
p2
(lp3
sS'type'
p4
S'map'
p5
sS'attr'
p6
(dp7
S'LOAD'
p8
(i__main__
Fn
p9
(dp10
S'fn'
p11
c__main__
LOAD
p12
sg2
(lp13
sg4
S'fn'
p14
sg6
(dp15
sS'value'
p16
g8
sbsS'SAVE'
p17
(i__main__
Fn
p18
(dp19
g11
c__main__
SAVE
p20
sg2
(lp21
sg4
S'fn'
p22
sg6
(dp23
sg16
g17
sbssg16
S'FORTH'
p24
sb.