(lp0
(isym
Integer
p1
(dp2
S'nest'
p3
(lp4
sS'type'
p5
S'integer'
p6
sS'attr'
p7
(dp8
sS'value'
p9
I1
sba(isym
Integer
p10
(dp11
g3
(lp12
sg5
S'integer'
p13
sg7
(dp14
sg9
I2
sba(isym
Integer
p15
(dp16
g3
(lp17
sg5
S'integer'
p18
sg7
(dp19
sg9
I3
sba.