(lp0
(isym
Integer
p1
(dp2
S'nest'
p3
(lp4
sS'type'
p5
S'integer'
p6
sS'attr'
p7
(dp8
sS'value'
p9
I1
sba(isym
Number
p10
(dp11
g3
(lp12
sg5
S'number'
p13
sg7
(dp14
sg9
F2.3
sba(isym
Number
p15
(dp16
g3
(lp17
sg5
S'number'
p18
sg7
(dp19
sg9
F400000.0
sba(isym
Hex
p20
(dp21
g3
(lp22
sg5
S'hex'
p23
sg7
(dp24
sg9
I3735928559
sba(isym
Bin
p25
(dp26
g3
(lp27
sg5
S'bin'
p28
sg7
(dp29
sg9
I13
sba.