(iforth
FORTH
p0
(dp1
S'nest'
p2
(lp3
sS'type'
p4
S'forth'
p5
sS'attr'
p6
(dp7
S'OS'
p8
(isym
Cmd
p9
(dp10
S'fn'
p11
cforth
OS
p12
sg2
(lp13
sg4
S'cmd'
p14
sg6
(dp15
sS'value'
p16
g8
sbsS'COS'
p17
(isym
Cmd
p18
(dp19
g11
cforth
COS
p20
sg2
(lp21
sg4
S'cmd'
p22
sg6
(dp23
sg16
g17
sbsS'DROP'
p24
(isym
Cmd
p25
(dp26
g11
cforth
DROP
p27
sg2
(lp28
sg4
S'cmd'
p29
sg6
(dp30
sg16
g24
sbsS'GROUP'
p31
(isym
Cmd
p32
(dp33
g11
cforth
GROUP
p34
sg2
(lp35
sg4
S'cmd'
p36
sg6
(dp37
sg16
g31
sbsS'SUB'
p38
(isym
Cmd
p39
(dp40
g11
cforth
SUB
p41
sg2
(lp42
sg4
S'cmd'
p43
sg6
(dp44
sg16
g38
sbsS'OVER'
p45
(isym
Cmd
p46
(dp47
g11
cforth
OVER
p48
sg2
(lp49
sg4
S'cmd'
p50
sg6
(dp51
sg16
g45
sbsS'EXECUTE'
p52
(isym
Cmd
p53
(dp54
g11
cforth
EXECUTE
p55
sg2
(lp56
sg4
S'cmd'
p57
sg6
(dp58
sg16
g52
sbsS'arm'
p59
(isym
Arch
p60
(dp61
g2
(lp62
sg4
S'arch'
p63
sg6
(dp64
sg16
g59
sbsS'FROG'
p65
(isym
Cmd
p66
(dp67
g11
cforth
FROG
p68
sg2
(lp69
sg4
S'cmd'
p70
sg6
(dp71
sg16
g65
sbsS'mips'
p72
(isym
Arch
p73
(dp74
g2
(lp75
sg4
S'arch'
p76
sg6
(dp77
sg16
g72
sbsS'.SAVE'
p78
(isym
Cmd
p79
(dp80
g11
cforth
pSAVE
p81
sg2
(lp82
sg4
S'cmd'
p83
sg6
(dp84
sg16
S'pSAVE'
p85
sbsS'MUL'
p86
(isym
Cmd
p87
(dp88
g11
cforth
MUL
p89
sg2
(lp90
sg4
S'cmd'
p91
sg6
(dp92
sg16
g86
sbsS'DIV'
p93
(isym
Cmd
p94
(dp95
g11
cforth
DIV
p96
sg2
(lp97
sg4
S'cmd'
p98
sg6
(dp99
sg16
g93
sbsS'.STORE'
p100
(isym
Cmd
p101
(dp102
g11
cforth
pSTORE
p103
sg2
(lp104
sg4
S'cmd'
p105
sg6
(dp106
sg16
S'pSTORE'
p107
sbsS'ARCH'
p108
(isym
Cmd
p109
(dp110
g11
cforth
ARCH
p111
sg2
(lp112
sg4
S'cmd'
p113
sg6
(dp114
sg16
g108
sbsS'SIN'
p115
(isym
Cmd
p116
(dp117
g11
cforth
SIN
p118
sg2
(lp119
sg4
S'cmd'
p120
sg6
(dp121
sg16
g115
sbsS'FN'
p122
(isym
Cmd
p123
(dp124
g11
cforth
FN
p125
sg2
(lp126
sg4
S'cmd'
p127
sg6
(dp128
sg16
g122
sbsS'.SLOT'
p129
(isym
Cmd
p130
(dp131
g11
cforth
pSLOT
p132
sg2
(lp133
sg4
S'cmd'
p134
sg6
(dp135
sg16
S'pSLOT'
p136
sbsS'.DROP'
p137
(isym
Cmd
p138
(dp139
g11
cforth
pDROP
p140
sg2
(lp141
sg4
S'cmd'
p142
sg6
(dp143
sg16
S'pDROP'
p144
sbsS'TASK'
p145
(isym
Cmd
p146
(dp147
g11
cforth
TASK
p148
sg2
(lp149
sg4
S'cmd'
p150
sg6
(dp151
sg16
g145
sbsS'WORD'
p152
(isym
Cmd
p153
(dp154
g11
cforth
WORD
p155
sg2
(lp156
sg4
S'cmd'
p157
sg6
(dp158
sg16
g152
sbsS'$'
p159
(isym
Cmd
p160
(dp161
g11
g132
sg2
(lp162
sg4
S'cmd'
p163
sg6
(dp164
sg16
g136
sbsS'POW'
p165
(isym
Cmd
p166
(dp167
g11
cforth
POW
p168
sg2
(lp169
sg4
S'cmd'
p170
sg6
(dp171
sg16
g165
sbsS'+'
p172
(isym
Cmd
p173
(dp174
g11
cforth
ADD
p175
sg2
(lp176
sg4
S'cmd'
p177
sg6
(dp178
sg16
S'ADD'
p179
sbsS'*'
p180
(isym
Cmd
p181
(dp182
g11
g89
sg2
(lp183
sg4
S'cmd'
p184
sg6
(dp185
sg16
g86
sbsS'-'
p186
(isym
Cmd
p187
(dp188
g11
g41
sg2
(lp189
sg4
S'cmd'
p190
sg6
(dp191
sg16
g38
sbsS'/'
p192
(isym
Cmd
p193
(dp194
g11
g96
sg2
(lp195
sg4
S'cmd'
p196
sg6
(dp197
sg16
g93
sbsS'.'
p198
(isym
Cmd
p199
(dp200
g11
cforth
DROPALL
p201
sg2
(lp202
sg4
S'cmd'
p203
sg6
(dp204
sg16
S'DROPALL'
p205
sbsS'STM32'
p206
(isym
Mcu
p207
(dp208
g2
(lp209
sg4
S'mcu'
p210
sg6
(dp211
Vuart
p212
(isym
Group
p213
(dp214
g2
(lp215
sg4
S'group'
p216
sg6
(dp217
VMX_USART2_UART_Init
p218
(isym
Fn
p219
(dp220
g2
(lp221
sg4
S'fn'
p222
sg6
(dp223
sg16
g218
sbsVMX_USART1_UART_Init
p224
(isym
Fn
p225
(dp226
g2
(lp227
sg4
S'fn'
p228
sg6
(dp229
sg16
g224
sbsVMX_USART3_UART_Init
p230
(isym
Fn
p231
(dp232
g2
(lp233
sg4
S'fn'
p234
sg6
(dp235
sg16
g230
sbssg16
g212
sbsVarch
p236
(isym
Arch
p237
(dp238
g2
(lp239
sg4
S'arch'
p240
sg6
(dp241
sg16
S'arm'
p242
sbsVSTM32L0
p243
(isym
Mcu
p244
(dp245
g2
(lp246
sg4
S'mcu'
p247
sg6
(dp248
sg16
g243
sbsVinit
p249
(isym
Symbol
p250
(dp251
g2
(lp252
sg4
S'symbol'
p253
sg6
(dp254
VMX_TIM4_Init
p255
(isym
Fn
p256
(dp257
g2
(lp258
sg4
S'fn'
p259
sg6
(dp260
sg16
g255
sbsVHAL_Init
p261
(isym
Fn
p262
(dp263
g2
(lp264
sg4
S'fn'
p265
sg6
(dp266
sg16
g261
sbsg224
g225
sVMX_RTC_Init
p267
(isym
Fn
p268
(dp269
g2
(lp270
sg4
S'fn'
p271
sg6
(dp272
sg16
g267
sbsg230
g231
sVMX_ADC1_Init
p273
(isym
Fn
p274
(dp275
g2
(lp276
sg4
S'fn'
p277
sg6
(dp278
sg16
g273
sbsVMX_IWDG_Init
p279
(isym
Fn
p280
(dp281
g2
(lp282
sg4
S'fn'
p283
sg6
(dp284
sg16
g279
sbsVMX_GPIO_Init
p285
(isym
Fn
p286
(dp287
g2
(lp288
sg4
S'fn'
p289
sg6
(dp290
sg16
g285
sbsg218
g219
sVmain
p291
(isym
Fn
p292
(dp293
g2
(lp294
sg4
S'fn'
p295
sg6
(dp296
sg16
g291
sbsVSystemClock_Config
p297
(isym
Fn
p298
(dp299
g2
(lp300
sg4
S'fn'
p301
sg6
(dp302
sg16
g297
sbssg16
g249
sbsVadc
p303
(isym
Group
p304
(dp305
g2
(lp306
sg4
S'group'
p307
sg6
(dp308
g273
g274
ssg16
g303
sbsVSTM32F4
p309
(isym
Mcu
p310
(dp311
g2
(lp312
sg4
S'mcu'
p313
sg6
(dp314
sg16
g309
sbsVgpio
p315
(isym
Group
p316
(dp317
g2
(lp318
sg4
S'group'
p319
sg6
(dp320
sg16
g315
sbsVSTM32F0
p321
(isym
Mcu
p322
(dp323
g2
(lp324
sg4
S'mcu'
p325
sg6
(dp326
sg16
g321
sbsVSTM32F1
p327
(isym
Mcu
p328
(dp329
g2
(lp330
sg4
S'mcu'
p331
sg6
(dp332
VSTM32F103
p333
(isym
Mcu
p334
(dp335
g2
(lp336
sg4
S'mcu'
p337
sg6
(dp338
VSTM32F103CBTx
p339
(isym
Mcu
p340
(dp341
g2
(lp342
sg4
S'mcu'
p343
sg6
(dp344
VFLASH
p345
(isym
Integer
p346
(dp347
g2
(lp348
sg4
S'integer'
p349
sg6
(dp350
Vunit
p351
(isym
Symbol
p352
(dp353
g2
(lp354
sg4
S'symbol'
p355
sg6
(dp356
sg16
VKb
p357
sbssg16
I128
sbsVRAM
p358
(isym
Integer
p359
(dp360
g2
(lp361
sg4
S'integer'
p362
sg6
(dp363
Vunit
p364
(isym
Symbol
p365
(dp366
g2
(lp367
sg4
S'symbol'
p368
sg6
(dp369
sg16
VKb
p370
sbssg16
I20
sbsVsuper
p371
g334
ssg16
g339
sbsVsuper
p372
g328
ssg16
g333
sbsVsuper
p373
(isym
Mcu
p374
(dp375
g2
(lp376
sg4
S'mcu'
p377
sg6
g211
sg16
S'STM32'
p378
sbssg16
g327
sbsVdsp
p379
(isym
Group
p380
(dp381
g2
(lp382
sg4
S'group'
p383
sg6
(dp384
g303
g304
ssg16
g379
sbssg16
g206
sbsg339
g340
sS'NUM'
p385
(isym
Cmd
p386
(dp387
g11
cforth
NUM
p388
sg2
(lp389
sg4
S'cmd'
p390
sg6
(dp391
sg16
g385
sbsS'SWAP'
p392
(isym
Cmd
p393
(dp394
g11
cforth
SWAP
p395
sg2
(lp396
sg4
S'cmd'
p397
sg6
(dp398
sg16
g392
sbsS'WORDS'
p399
(isym
Cmd
p400
(dp401
g11
cforth
WORDS
p402
sg2
(lp403
sg4
S'cmd'
p404
sg6
(dp405
sg16
g399
sbsS'PRESS'
p406
(isym
Cmd
p407
(dp408
g11
cforth
PRESS
p409
sg2
(lp410
sg4
S'cmd'
p411
sg6
(dp412
sg16
g406
sbsS'TAN'
p413
(isym
Cmd
p414
(dp415
g11
cforth
TAN
p416
sg2
(lp417
sg4
S'cmd'
p418
sg6
(dp419
sg16
g413
sbsS'AXIS'
p420
(isym
Cmd
p421
(dp422
g11
cforth
AXIS
p423
sg2
(lp424
sg4
S'cmd'
p425
sg6
(dp426
sg16
g420
sbsS'STACK'
p427
(isym
Cmd
p428
(dp429
g11
cforth
STACK
p430
sg2
(lp431
sg4
S'cmd'
p432
sg6
(dp433
sg16
g427
sbsS'?'
p434
(isym
Cmd
p435
(dp436
g11
cforth
q
p437
sg2
(lp438
sg4
S'cmd'
p439
sg6
(dp440
sg16
S'q'
p441
sbsS'LOAD'
p442
(isym
Cmd
p443
(dp444
g11
cforth
LOAD
p445
sg2
(lp446
sg4
S'cmd'
p447
sg6
(dp448
sg16
g442
sbsS'@'
p449
(isym
Cmd
p450
(dp451
g11
cforth
pFETCH
p452
sg2
(lp453
sg4
S'cmd'
p454
sg6
(dp455
sg16
S'pFETCH'
p456
sbsS'.LOAD'
p457
(isym
Cmd
p458
(dp459
g11
cforth
pLOAD
p460
sg2
(lp461
sg4
S'cmd'
p462
sg6
(dp463
sg16
S'pLOAD'
p464
sbsS'E'
p465
(isym
Number
p466
(dp467
g2
(lp468
sg4
S'number'
p469
sg6
(dp470
sg16
F2.718281828459045
sbsS'x86'
p471
(isym
Arch
p472
(dp473
g2
(lp474
sg4
S'arch'
p475
sg6
(dp476
sg16
g471
sbsS'URL'
p477
(isym
Cmd
p478
(dp479
g11
cforth
URL
p480
sg2
(lp481
sg4
S'cmd'
p482
sg6
(dp483
sg16
g477
sbsS'CPU'
p484
(isym
Cmd
p485
(dp486
g11
cforth
CPU
p487
sg2
(lp488
sg4
S'cmd'
p489
sg6
(dp490
sg16
g484
sbsS'.PUSH'
p491
(isym
Cmd
p492
(dp493
g11
cforth
pPUSH
p494
sg2
(lp495
sg4
S'cmd'
p496
sg6
(dp497
sg16
S'pPUSH'
p498
sbsS'VM'
p499
(iforth
FORTH
p500
(dp501
g2
(lp502
sg4
S'forth'
p503
sg6
g7
sg16
S'vm'
p504
sbsg179
(isym
Cmd
p505
(dp506
g11
g175
sg2
(lp507
sg4
S'cmd'
p508
sg6
(dp509
sg16
g179
sbsS'!'
p510
(isym
Cmd
p511
(dp512
g11
g103
sg2
(lp513
sg4
S'cmd'
p514
sg6
(dp515
sg16
g107
sbsS'plan'
p516
(ipps
Plan
p517
(dp518
g2
(lp519
sg4
S'plan'
p520
sg6
(dp521
sg16
g516
sbsS'.POP'
p522
(isym
Cmd
p523
(dp524
g11
cforth
pPOP
p525
sg2
(lp526
sg4
S'cmd'
p527
sg6
(dp528
sg16
S'pPOP'
p529
sbsS'DUP'
p530
(isym
Cmd
p531
(dp532
g11
cforth
DUP
p533
sg2
(lp534
sg4
S'cmd'
p535
sg6
(dp536
sg16
g530
sbsS'%'
p537
(isym
Cmd
p538
(dp539
g11
cforth
MOD
p540
sg2
(lp541
sg4
S'cmd'
p542
sg6
(dp543
sg16
S'MOD'
p544
sbsS'BYE'
p545
(isym
Cmd
p546
(dp547
g11
cforth
BYE
p548
sg2
(lp549
sg4
S'cmd'
p550
sg6
(dp551
sg16
g545
sbsS'SLON'
p552
(isym
Cmd
p553
(dp554
g11
cforth
SLON
p555
sg2
(lp556
sg4
S'cmd'
p557
sg6
(dp558
sg16
g552
sbsS'^'
p559
(isym
Cmd
p560
(dp561
g11
g168
sg2
(lp562
sg4
S'cmd'
p563
sg6
(dp564
sg16
g165
sbsS'FIND'
p565
(isym
Cmd
p566
(dp567
g11
cforth
FIND
p568
sg2
(lp569
sg4
S'cmd'
p570
sg6
(dp571
sg16
g565
sbsS'MAP'
p572
(isym
Cmd
p573
(dp574
g11
cforth
MAP
p575
sg2
(lp576
sg4
S'cmd'
p577
sg6
(dp578
sg16
g572
sbsS'PI'
p579
(isym
Number
p580
(dp581
g2
(lp582
sg4
S'number'
p583
sg6
(dp584
sg16
F3.141592653589793
sbsS'.DEL'
p585
(isym
Cmd
p586
(dp587
g11
cforth
pDEL
p588
sg2
(lp589
sg4
S'cmd'
p590
sg6
(dp591
sg16
S'pDEL'
p592
sbsS'INT'
p593
(isym
Cmd
p594
(dp595
g11
cforth
INT
p596
sg2
(lp597
sg4
S'cmd'
p598
sg6
(dp599
sg16
g593
sbsS'//'
p600
(isym
Cmd
p601
(dp602
g11
g494
sg2
(lp603
sg4
S'cmd'
p604
sg6
(dp605
sg16
g498
sbsVRTOS
p606
(isym
Os
p607
(dp608
g2
(lp609
(isym
Os
p610
(dp611
g2
(lp612
sg4
S'os'
p613
sg6
(dp614
Vsuper
p615
(isym
Os
p616
(dp617
g2
g609
sg4
S'os'
p618
sg6
(dp619
sg16
VRTOS
p620
sbssg16
VFreeRTOS
p621
sbasg4
S'os'
p622
sg6
(dp623
Vsheduler
p624
(isym
Symbol
p625
(dp626
g2
(lp627
sg4
S'symbol'
p628
sg6
(dp629
Vpreemptive
p630
(isym
Symbol
p631
(dp632
g2
(lp633
sg4
S'symbol'
p634
sg6
(dp635
sg16
g630
sbsVcooperative
p636
(isym
Symbol
p637
(dp638
g2
(lp639
sg4
S'symbol'
p640
sg6
(dp641
sg16
g636
sbssg16
Vsheduler
p642
sbsVtask
p643
(isym
String
p644
(dp645
g2
(lp646
sg4
S'string'
p647
sg6
(dp648
Vstate
p649
(isym
Symbol
p650
(dp651
g2
(lp652
sg4
S'symbol'
p653
sg6
(dp654
VREADY
p655
(isym
Symbol
p656
(dp657
g2
(lp658
sg4
S'symbol'
p659
sg6
(dp660
sg16
g655
sbsVIDLE
p661
(isym
Symbol
p662
(dp663
g2
(lp664
sg4
S'symbol'
p665
sg6
(dp666
sg16
VIDLE
p667
sbsVSUSPEND
p668
(isym
Symbol
p669
(dp670
g2
(lp671
sg4
S'symbol'
p672
sg6
(dp673
sg16
g668
sbsVRUN
p674
(isym
Symbol
p675
(dp676
g2
(lp677
sg4
S'symbol'
p678
sg6
(dp679
sg16
g674
sbsVWAIT
p680
(isym
Symbol
p681
(dp682
g2
(lp683
sg4
S'symbol'
p684
sg6
(dp685
sg16
g680
sbssg16
g649
sbssg16
g643
sbsVdoc
p686
(isym
Url
p687
(dp688
g2
(lp689
sg4
S'url'
p690
sg6
(dp691
sg16
Vhttp://easyelectronics.ru/freertos_manual.html
p692
sbsVtimer
p693
(isym
Symbol
p694
(dp695
g2
(lp696
sg4
S'symbol'
p697
sg6
(dp698
sg16
g693
sbsVqueue
p699
(isym
Symbol
p700
(dp701
g2
(lp702
sg4
S'symbol'
p703
sg6
(dp704
sg16
g699
sbsVmutex
p705
(isym
Symbol
p706
(dp707
g2
(lp708
sg4
S'symbol'
p709
sg6
(dp710
sg16
g705
sbsVtimeout
p711
(isym
Symbol
p712
(dp713
g2
(lp714
sg4
S'symbol'
p715
sg6
(dp716
sg16
g711
sbsVsemaphore
p717
(isym
Symbol
p718
(dp719
g2
(lp720
sg4
S'symbol'
p721
sg6
(dp722
sg16
g717
sbssg16
g606
sbsS'SQRT'
p723
(isym
Cmd
p724
(dp725
g11
cforth
SQRT
p726
sg2
(lp727
sg4
S'cmd'
p728
sg6
(dp729
sg16
g723
sbsg205
(isym
Cmd
p730
(dp731
g11
g201
sg2
(lp732
sg4
S'cmd'
p733
sg6
(dp734
sg16
g205
sbsS'INTERPRET'
p735
(isym
Cmd
p736
(dp737
g11
cforth
INTERPRET
p738
sg2
(lp739
sg4
S'cmd'
p740
sg6
(dp741
sg16
g735
sbsS'INHER'
p742
(isym
Cmd
p743
(dp744
g11
cforth
INHER
p745
sg2
(lp746
sg4
S'cmd'
p747
sg6
(dp748
sg16
g742
sbsS'MCU'
p749
(isym
Cmd
p750
(dp751
g11
cforth
MCU
p752
sg2
(lp753
sg4
S'cmd'
p754
sg6
(dp755
sg16
g749
sbsS'SAVE'
p756
(isym
Cmd
p757
(dp758
g11
cforth
SAVE
p759
sg2
(lp760
sg4
S'cmd'
p761
sg6
(dp762
sg16
g756
sbsS'.FETCH'
p763
(isym
Cmd
p764
(dp765
g11
g452
sg2
(lp766
sg4
S'cmd'
p767
sg6
(dp768
sg16
g456
sbsS'VECTOR'
p769
(isym
Cmd
p770
(dp771
g11
cforth
VECTOR
p772
sg2
(lp773
sg4
S'cmd'
p774
sg6
(dp775
sg16
g769
sbsg544
(isym
Cmd
p776
(dp777
g11
g540
sg2
(lp778
sg4
S'cmd'
p779
sg6
(dp780
sg16
g544
sbssg16
S'vm'
p781
sb.