(iforth
FORTH
p0
(dp1
S'nest'
p2
(lp3
sS'type'
p4
S'forth'
p5
sS'attr'
p6
(dp7
S'AXIS'
p8
(isym
Cmd
p9
(dp10
S'fn'
p11
cforth
AXIS
p12
sg2
(lp13
sg4
S'cmd'
p14
sg6
(dp15
sS'value'
p16
g8
sbsS'COS'
p17
(isym
Cmd
p18
(dp19
g11
cforth
COS
p20
sg2
(lp21
sg4
S'cmd'
p22
sg6
(dp23
sg16
g17
sbsS'DROP'
p24
(isym
Cmd
p25
(dp26
g11
cforth
DROP
p27
sg2
(lp28
sg4
S'cmd'
p29
sg6
(dp30
sg16
g24
sbsS'GROUP'
p31
(isym
Cmd
p32
(dp33
g11
cforth
GROUP
p34
sg2
(lp35
sg4
S'cmd'
p36
sg6
(dp37
sg16
g31
sbsS'SUB'
p38
(isym
Cmd
p39
(dp40
g11
cforth
SUB
p41
sg2
(lp42
sg4
S'cmd'
p43
sg6
(dp44
sg16
g38
sbsS'@'
p45
(isym
Cmd
p46
(dp47
g11
cforth
pFETCH
p48
sg2
(lp49
sg4
S'cmd'
p50
sg6
(dp51
sg16
S'pFETCH'
p52
sbsS'OVER'
p53
(isym
Cmd
p54
(dp55
g11
cforth
OVER
p56
sg2
(lp57
sg4
S'cmd'
p58
sg6
(dp59
sg16
g53
sbsS'EXECUTE'
p60
(isym
Cmd
p61
(dp62
g11
cforth
EXECUTE
p63
sg2
(lp64
sg4
S'cmd'
p65
sg6
(dp66
sg16
g60
sbsS'arm'
p67
(isym
Arch
p68
(dp69
g2
(lp70
sg4
S'arch'
p71
sg6
(dp72
sg16
g67
sbsVMETA
p73
(isym
Group
p74
(dp75
g2
(lp76
sg4
S'group'
p77
sg6
(dp78
VC89
p79
(isym
Lang
p80
(dp81
g2
(lp82
sg4
S'lang'
p83
sg6
(dp84
VCpp
p85
(isym
Lang
p86
(dp87
g2
(lp88
sg4
S'lang'
p89
sg6
(dp90
sg16
g85
sbssg16
g79
sbsVLLVM
p91
(isym
Compiler
p92
(dp93
g2
(lp94
sg4
S'compiler'
p95
sg6
(dp96
sg16
g91
sbsVweb
p97
(isym
Group
p98
(dp99
g2
(lp100
sg4
S'group'
p101
sg6
(dp102
VHTML
p103
(isym
Lang
p104
(dp105
g2
(lp106
sg4
S'lang'
p107
sg6
(dp108
sg16
g103
sbsVCSS
p109
(isym
Lang
p110
(dp111
g2
(lp112
sg4
S'lang'
p113
sg6
(dp114
sg16
g109
sbsVJS
p115
(isym
Lang
p116
(dp117
g2
(lp118
sg4
S'lang'
p119
sg6
(dp120
sg16
g115
sbssg16
g97
sbssg16
g73
sbsS'FROG'
p121
(isym
Cmd
p122
(dp123
g11
cforth
FROG
p124
sg2
(lp125
sg4
S'cmd'
p126
sg6
(dp127
sg16
g121
sbsS'mips'
p128
(isym
Arch
p129
(dp130
g2
(lp131
sg4
S'arch'
p132
sg6
(dp133
sg16
g128
sbsS'.SAVE'
p134
(isym
Cmd
p135
(dp136
g11
cforth
pSAVE
p137
sg2
(lp138
sg4
S'cmd'
p139
sg6
(dp140
sg16
S'pSAVE'
p141
sbsS'MUL'
p142
(isym
Cmd
p143
(dp144
g11
cforth
MUL
p145
sg2
(lp146
sg4
S'cmd'
p147
sg6
(dp148
sg16
g142
sbsS'DIV'
p149
(isym
Cmd
p150
(dp151
g11
cforth
DIV
p152
sg2
(lp153
sg4
S'cmd'
p154
sg6
(dp155
sg16
g149
sbsS'.STORE'
p156
(isym
Cmd
p157
(dp158
g11
cforth
pSTORE
p159
sg2
(lp160
sg4
S'cmd'
p161
sg6
(dp162
sg16
S'pSTORE'
p163
sbsS'ARCH'
p164
(isym
Cmd
p165
(dp166
g11
cforth
ARCH
p167
sg2
(lp168
sg4
S'cmd'
p169
sg6
(dp170
sg16
g164
sbsS'SIN'
p171
(isym
Cmd
p172
(dp173
g11
cforth
SIN
p174
sg2
(lp175
sg4
S'cmd'
p176
sg6
(dp177
sg16
g171
sbsS'FN'
p178
(isym
Cmd
p179
(dp180
g11
cforth
FN
p181
sg2
(lp182
sg4
S'cmd'
p183
sg6
(dp184
sg16
g178
sbsS'.SLOT'
p185
(isym
Cmd
p186
(dp187
g11
cforth
pSLOT
p188
sg2
(lp189
sg4
S'cmd'
p190
sg6
(dp191
sg16
S'pSLOT'
p192
sbsS'.DROP'
p193
(isym
Cmd
p194
(dp195
g11
cforth
pDROP
p196
sg2
(lp197
sg4
S'cmd'
p198
sg6
(dp199
sg16
S'pDROP'
p200
sbsS'TASK'
p201
(isym
Cmd
p202
(dp203
g11
cforth
TASK
p204
sg2
(lp205
sg4
S'cmd'
p206
sg6
(dp207
sg16
g201
sbsS'%'
p208
(isym
Cmd
p209
(dp210
g11
cforth
MOD
p211
sg2
(lp212
sg4
S'cmd'
p213
sg6
(dp214
sg16
S'MOD'
p215
sbsS'$'
p216
(isym
Cmd
p217
(dp218
g11
g188
sg2
(lp219
sg4
S'cmd'
p220
sg6
(dp221
sg16
g192
sbsS'POW'
p222
(isym
Cmd
p223
(dp224
g11
cforth
POW
p225
sg2
(lp226
sg4
S'cmd'
p227
sg6
(dp228
sg16
g222
sbsS'+'
p229
(isym
Cmd
p230
(dp231
g11
cforth
ADD
p232
sg2
(lp233
sg4
S'cmd'
p234
sg6
(dp235
sg16
S'ADD'
p236
sbsS'*'
p237
(isym
Cmd
p238
(dp239
g11
g145
sg2
(lp240
sg4
S'cmd'
p241
sg6
(dp242
sg16
g142
sbsS'-'
p243
(isym
Cmd
p244
(dp245
g11
g41
sg2
(lp246
sg4
S'cmd'
p247
sg6
(dp248
sg16
g38
sbsS'/'
p249
(isym
Cmd
p250
(dp251
g11
g152
sg2
(lp252
sg4
S'cmd'
p253
sg6
(dp254
sg16
g149
sbsS'.'
p255
(isym
Cmd
p256
(dp257
g11
cforth
DROPALL
p258
sg2
(lp259
sg4
S'cmd'
p260
sg6
(dp261
sg16
S'DROPALL'
p262
sbsS'STM32'
p263
(isym
Mcu
p264
(dp265
g2
(lp266
sg4
S'mcu'
p267
sg6
(dp268
Vuart
p269
(isym
Group
p270
(dp271
g2
(lp272
sg4
S'group'
p273
sg6
(dp274
VMX_USART2_UART_Init
p275
(isym
Fn
p276
(dp277
g2
(lp278
sg4
S'fn'
p279
sg6
(dp280
sg16
g275
sbsVMX_USART1_UART_Init
p281
(isym
Fn
p282
(dp283
g2
(lp284
sg4
S'fn'
p285
sg6
(dp286
sg16
g281
sbsVMX_USART3_UART_Init
p287
(isym
Fn
p288
(dp289
g2
(lp290
sg4
S'fn'
p291
sg6
(dp292
sg16
g287
sbssg16
g269
sbsVarch
p293
(isym
Arch
p294
(dp295
g2
(lp296
sg4
S'arch'
p297
sg6
(dp298
sg16
S'arm'
p299
sbsVSTM32L0
p300
(isym
Mcu
p301
(dp302
g2
(lp303
sg4
S'mcu'
p304
sg6
(dp305
sg16
g300
sbsVinit
p306
(isym
Symbol
p307
(dp308
g2
(lp309
sg4
S'symbol'
p310
sg6
(dp311
VMX_TIM4_Init
p312
(isym
Fn
p313
(dp314
g2
(lp315
sg4
S'fn'
p316
sg6
(dp317
sg16
g312
sbsVHAL_Init
p318
(isym
Fn
p319
(dp320
g2
(lp321
sg4
S'fn'
p322
sg6
(dp323
sg16
g318
sbsg281
g282
sVMX_RTC_Init
p324
(isym
Fn
p325
(dp326
g2
(lp327
sg4
S'fn'
p328
sg6
(dp329
sg16
g324
sbsg287
g288
sVMX_ADC1_Init
p330
(isym
Fn
p331
(dp332
g2
(lp333
sg4
S'fn'
p334
sg6
(dp335
sg16
g330
sbsVMX_IWDG_Init
p336
(isym
Fn
p337
(dp338
g2
(lp339
sg4
S'fn'
p340
sg6
(dp341
sg16
g336
sbsVMX_GPIO_Init
p342
(isym
Fn
p343
(dp344
g2
(lp345
sg4
S'fn'
p346
sg6
(dp347
sg16
g342
sbsg275
g276
sVmain
p348
(isym
Fn
p349
(dp350
g2
(lp351
sg4
S'fn'
p352
sg6
(dp353
sg16
g348
sbsVSystemClock_Config
p354
(isym
Fn
p355
(dp356
g2
(lp357
sg4
S'fn'
p358
sg6
(dp359
sg16
g354
sbssg16
g306
sbsVadc
p360
(isym
Group
p361
(dp362
g2
(lp363
sg4
S'group'
p364
sg6
(dp365
g330
g331
ssg16
g360
sbsVSTM32F4
p366
(isym
Mcu
p367
(dp368
g2
(lp369
sg4
S'mcu'
p370
sg6
(dp371
sg16
g366
sbsVgpio
p372
(isym
Group
p373
(dp374
g2
(lp375
sg4
S'group'
p376
sg6
(dp377
sg16
g372
sbsVSTM32F0
p378
(isym
Mcu
p379
(dp380
g2
(lp381
sg4
S'mcu'
p382
sg6
(dp383
sg16
g378
sbsVSTM32F1
p384
(isym
Mcu
p385
(dp386
g2
(lp387
sg4
S'mcu'
p388
sg6
(dp389
VSTM32F103
p390
(isym
Mcu
p391
(dp392
g2
(lp393
sg4
S'mcu'
p394
sg6
(dp395
VSTM32F103CBTx
p396
(isym
Mcu
p397
(dp398
g2
(lp399
sg4
S'mcu'
p400
sg6
(dp401
VFLASH
p402
(isym
Integer
p403
(dp404
g2
(lp405
sg4
S'integer'
p406
sg6
(dp407
Vunit
p408
(isym
Symbol
p409
(dp410
g2
(lp411
sg4
S'symbol'
p412
sg6
(dp413
sg16
VKb
p414
sbssg16
I128
sbsVRAM
p415
(isym
Integer
p416
(dp417
g2
(lp418
sg4
S'integer'
p419
sg6
(dp420
Vunit
p421
(isym
Symbol
p422
(dp423
g2
(lp424
sg4
S'symbol'
p425
sg6
(dp426
sg16
VKb
p427
sbssg16
I20
sbsVsuper
p428
g391
ssg16
g396
sbsVsuper
p429
g385
ssg16
g390
sbsVsuper
p430
(isym
Mcu
p431
(dp432
g2
(lp433
sg4
S'mcu'
p434
sg6
g268
sg16
S'STM32'
p435
sbssg16
g384
sbsVdsp
p436
(isym
Group
p437
(dp438
g2
(lp439
sg4
S'group'
p440
sg6
(dp441
g360
g361
ssg16
g436
sbssg16
g263
sbsg396
g397
sS'NUM'
p442
(isym
Cmd
p443
(dp444
g11
cforth
NUM
p445
sg2
(lp446
sg4
S'cmd'
p447
sg6
(dp448
sg16
g442
sbsS'SWAP'
p449
(isym
Cmd
p450
(dp451
g11
cforth
SWAP
p452
sg2
(lp453
sg4
S'cmd'
p454
sg6
(dp455
sg16
g449
sbsS'WORDS'
p456
(isym
Cmd
p457
(dp458
g11
cforth
WORDS
p459
sg2
(lp460
sg4
S'cmd'
p461
sg6
(dp462
sg16
g456
sbsS'PRESS'
p463
(isym
Cmd
p464
(dp465
g11
cforth
PRESS
p466
sg2
(lp467
sg4
S'cmd'
p468
sg6
(dp469
sg16
g463
sbsS'TAN'
p470
(isym
Cmd
p471
(dp472
g11
cforth
TAN
p473
sg2
(lp474
sg4
S'cmd'
p475
sg6
(dp476
sg16
g470
sbsS'PI'
p477
(isym
Number
p478
(dp479
g2
(lp480
sg4
S'number'
p481
sg6
(dp482
sg16
F3.141592653589793
sbsS'STACK'
p483
(isym
Cmd
p484
(dp485
g11
cforth
STACK
p486
sg2
(lp487
sg4
S'cmd'
p488
sg6
(dp489
sg16
g483
sbsS'?'
p490
(isym
Cmd
p491
(dp492
g11
cforth
q
p493
sg2
(lp494
sg4
S'cmd'
p495
sg6
(dp496
sg16
S'q'
p497
sbsS'LOAD'
p498
(isym
Cmd
p499
(dp500
g11
cforth
LOAD
p501
sg2
(lp502
sg4
S'cmd'
p503
sg6
(dp504
sg16
g498
sbsS'//'
p505
(isym
Cmd
p506
(dp507
g11
cforth
pPUSH
p508
sg2
(lp509
sg4
S'cmd'
p510
sg6
(dp511
sg16
S'pPUSH'
p512
sbsS'VECTOR'
p513
(isym
Cmd
p514
(dp515
g11
cforth
VECTOR
p516
sg2
(lp517
sg4
S'cmd'
p518
sg6
(dp519
sg16
g513
sbsS'.LOAD'
p520
(isym
Cmd
p521
(dp522
g11
cforth
pLOAD
p523
sg2
(lp524
sg4
S'cmd'
p525
sg6
(dp526
sg16
S'pLOAD'
p527
sbsS'E'
p528
(isym
Number
p529
(dp530
g2
(lp531
sg4
S'number'
p532
sg6
(dp533
sg16
F2.718281828459045
sbsS'x86'
p534
(isym
Arch
p535
(dp536
g2
(lp537
sg4
S'arch'
p538
sg6
(dp539
sg16
g534
sbsS'URL'
p540
(isym
Cmd
p541
(dp542
g11
cforth
URL
p543
sg2
(lp544
sg4
S'cmd'
p545
sg6
(dp546
sg16
g540
sbsS'CPU'
p547
(isym
Cmd
p548
(dp549
g11
cforth
CPU
p550
sg2
(lp551
sg4
S'cmd'
p552
sg6
(dp553
sg16
g547
sbsS'.PUSH'
p554
(isym
Cmd
p555
(dp556
g11
g508
sg2
(lp557
sg4
S'cmd'
p558
sg6
(dp559
sg16
g512
sbsS'VM'
p560
g0
sS'SYNTAX'
p561
(isym
Cmd
p562
(dp563
g11
cforth
SYNTAX
p564
sg2
(lp565
sg4
S'cmd'
p566
sg6
(dp567
sg16
g561
sbsg236
(isym
Cmd
p568
(dp569
g11
g232
sg2
(lp570
sg4
S'cmd'
p571
sg6
(dp572
sg16
g236
sbsS'!'
p573
(isym
Cmd
p574
(dp575
g11
g159
sg2
(lp576
sg4
S'cmd'
p577
sg6
(dp578
sg16
g163
sbsS'plan'
p579
(ipps
Plan
p580
(dp581
g2
(lp582
sg4
S'plan'
p583
sg6
(dp584
sg16
g579
sbsS'.POP'
p585
(isym
Cmd
p586
(dp587
g11
cforth
pPOP
p588
sg2
(lp589
sg4
S'cmd'
p590
sg6
(dp591
sg16
S'pPOP'
p592
sbsS'DUP'
p593
(isym
Cmd
p594
(dp595
g11
cforth
DUP
p596
sg2
(lp597
sg4
S'cmd'
p598
sg6
(dp599
sg16
g593
sbsS'WORD'
p600
(isym
Cmd
p601
(dp602
g11
cforth
WORD
p603
sg2
(lp604
sg4
S'cmd'
p605
sg6
(dp606
sg16
g600
sbsS'BYE'
p607
(isym
Cmd
p608
(dp609
g11
cforth
BYE
p610
sg2
(lp611
sg4
S'cmd'
p612
sg6
(dp613
sg16
g607
sbsS'LANG'
p614
(isym
Cmd
p615
(dp616
g11
cforth
LANG
p617
sg2
(lp618
sg4
S'cmd'
p619
sg6
(dp620
sg16
g614
sbsS'SLON'
p621
(isym
Cmd
p622
(dp623
g11
cforth
SLON
p624
sg2
(lp625
sg4
S'cmd'
p626
sg6
(dp627
sg16
g621
sbsS'^'
p628
(isym
Cmd
p629
(dp630
g11
g225
sg2
(lp631
sg4
S'cmd'
p632
sg6
(dp633
sg16
g222
sbsS'FIND'
p634
(isym
Cmd
p635
(dp636
g11
cforth
FIND
p637
sg2
(lp638
sg4
S'cmd'
p639
sg6
(dp640
sg16
g634
sbsS'MAP'
p641
(isym
Cmd
p642
(dp643
g11
cforth
MAP
p644
sg2
(lp645
sg4
S'cmd'
p646
sg6
(dp647
sg16
g641
sbsS'.DEL'
p648
(isym
Cmd
p649
(dp650
g11
cforth
pDEL
p651
sg2
(lp652
sg4
S'cmd'
p653
sg6
(dp654
sg16
S'pDEL'
p655
sbsS'INT'
p656
(isym
Cmd
p657
(dp658
g11
cforth
INT
p659
sg2
(lp660
sg4
S'cmd'
p661
sg6
(dp662
sg16
g656
sbsS'OS'
p663
(isym
Cmd
p664
(dp665
g11
cforth
OS
p666
sg2
(lp667
sg4
S'cmd'
p668
sg6
(dp669
sg16
g663
sbsS'SQRT'
p670
(isym
Cmd
p671
(dp672
g11
cforth
SQRT
p673
sg2
(lp674
sg4
S'cmd'
p675
sg6
(dp676
sg16
g670
sbsg262
(isym
Cmd
p677
(dp678
g11
g258
sg2
(lp679
sg4
S'cmd'
p680
sg6
(dp681
sg16
g262
sbsS'INHER'
p682
(isym
Cmd
p683
(dp684
g11
cforth
INHER
p685
sg2
(lp686
sg4
S'cmd'
p687
sg6
(dp688
sg16
g682
sbsS'MCU'
p689
(isym
Cmd
p690
(dp691
g11
cforth
MCU
p692
sg2
(lp693
sg4
S'cmd'
p694
sg6
(dp695
sg16
g689
sbsS'SAVE'
p696
(isym
Cmd
p697
(dp698
g11
cforth
SAVE
p699
sg2
(lp700
sg4
S'cmd'
p701
sg6
(dp702
sg16
g696
sbsS'.FETCH'
p703
(isym
Cmd
p704
(dp705
g11
g48
sg2
(lp706
sg4
S'cmd'
p707
sg6
(dp708
sg16
g52
sbsS'COMPILER'
p709
(isym
Cmd
p710
(dp711
g11
cforth
COMPILER
p712
sg2
(lp713
sg4
S'cmd'
p714
sg6
(dp715
sg16
g709
sbsS'INTERPRET'
p716
(isym
Cmd
p717
(dp718
g11
cforth
INTERPRET
p719
sg2
(lp720
sg4
S'cmd'
p721
sg6
(dp722
sg16
g716
sbsg215
(isym
Cmd
p723
(dp724
g11
g211
sg2
(lp725
sg4
S'cmd'
p726
sg6
(dp727
sg16
g215
sbssg16
S'vm'
p728
sb.