(iforth
FORTH
p0
(dp1
S'nest'
p2
(lp3
sS'type'
p4
S'forth'
p5
sS'attr'
p6
(dp7
S'AXIS'
p8
(isym
Cmd
p9
(dp10
S'fn'
p11
cforth
AXIS
p12
sg2
(lp13
sg4
S'cmd'
p14
sg6
(dp15
sS'value'
p16
g8
sbsS'COS'
p17
(isym
Cmd
p18
(dp19
g11
cforth
COS
p20
sg2
(lp21
sg4
S'cmd'
p22
sg6
(dp23
sg16
g17
sbsS'DROP'
p24
(isym
Cmd
p25
(dp26
g11
cforth
DROP
p27
sg2
(lp28
sg4
S'cmd'
p29
sg6
(dp30
sg16
g24
sbsS'GROUP'
p31
(isym
Cmd
p32
(dp33
g11
cforth
GROUP
p34
sg2
(lp35
sg4
S'cmd'
p36
sg6
(dp37
sg16
g31
sbsS'SUB'
p38
(isym
Cmd
p39
(dp40
g11
cforth
SUB
p41
sg2
(lp42
sg4
S'cmd'
p43
sg6
(dp44
sg16
g38
sbsS'@'
p45
(isym
Cmd
p46
(dp47
g11
cforth
pFETCH
p48
sg2
(lp49
sg4
S'cmd'
p50
sg6
(dp51
sg16
S'pFETCH'
p52
sbsS'OVER'
p53
(isym
Cmd
p54
(dp55
g11
cforth
OVER
p56
sg2
(lp57
sg4
S'cmd'
p58
sg6
(dp59
sg16
g53
sbsS'EXECUTE'
p60
(isym
Cmd
p61
(dp62
g11
cforth
EXECUTE
p63
sg2
(lp64
sg4
S'cmd'
p65
sg6
(dp66
sg16
g60
sbsS'arm'
p67
(isym
Arch
p68
(dp69
g2
(lp70
sg4
S'arch'
p71
sg6
(dp72
sg16
g67
sbsS'FROG'
p73
(isym
Cmd
p74
(dp75
g11
cforth
FROG
p76
sg2
(lp77
sg4
S'cmd'
p78
sg6
(dp79
sg16
g73
sbsS'mips'
p80
(isym
Arch
p81
(dp82
g2
(lp83
sg4
S'arch'
p84
sg6
(dp85
sg16
g80
sbsS'.SAVE'
p86
(isym
Cmd
p87
(dp88
g11
cforth
pSAVE
p89
sg2
(lp90
sg4
S'cmd'
p91
sg6
(dp92
sg16
S'pSAVE'
p93
sbsS'MUL'
p94
(isym
Cmd
p95
(dp96
g11
cforth
MUL
p97
sg2
(lp98
sg4
S'cmd'
p99
sg6
(dp100
sg16
g94
sbsS'DIV'
p101
(isym
Cmd
p102
(dp103
g11
cforth
DIV
p104
sg2
(lp105
sg4
S'cmd'
p106
sg6
(dp107
sg16
g101
sbsS'.STORE'
p108
(isym
Cmd
p109
(dp110
g11
cforth
pSTORE
p111
sg2
(lp112
sg4
S'cmd'
p113
sg6
(dp114
sg16
S'pSTORE'
p115
sbsS'ARCH'
p116
(isym
Cmd
p117
(dp118
g11
cforth
ARCH
p119
sg2
(lp120
sg4
S'cmd'
p121
sg6
(dp122
sg16
g116
sbsS'SIN'
p123
(isym
Cmd
p124
(dp125
g11
cforth
SIN
p126
sg2
(lp127
sg4
S'cmd'
p128
sg6
(dp129
sg16
g123
sbsS'FN'
p130
(isym
Cmd
p131
(dp132
g11
cforth
FN
p133
sg2
(lp134
sg4
S'cmd'
p135
sg6
(dp136
sg16
g130
sbsS'.SLOT'
p137
(isym
Cmd
p138
(dp139
g11
cforth
pSLOT
p140
sg2
(lp141
sg4
S'cmd'
p142
sg6
(dp143
sg16
S'pSLOT'
p144
sbsS'.DROP'
p145
(isym
Cmd
p146
(dp147
g11
cforth
pDROP
p148
sg2
(lp149
sg4
S'cmd'
p150
sg6
(dp151
sg16
S'pDROP'
p152
sbsS'TASK'
p153
(isym
Cmd
p154
(dp155
g11
cforth
TASK
p156
sg2
(lp157
sg4
S'cmd'
p158
sg6
(dp159
sg16
g153
sbsS'%'
p160
(isym
Cmd
p161
(dp162
g11
cforth
MOD
p163
sg2
(lp164
sg4
S'cmd'
p165
sg6
(dp166
sg16
S'MOD'
p167
sbsS'$'
p168
(isym
Cmd
p169
(dp170
g11
g140
sg2
(lp171
sg4
S'cmd'
p172
sg6
(dp173
sg16
g144
sbsS'POW'
p174
(isym
Cmd
p175
(dp176
g11
cforth
POW
p177
sg2
(lp178
sg4
S'cmd'
p179
sg6
(dp180
sg16
g174
sbsS'+'
p181
(isym
Cmd
p182
(dp183
g11
cforth
ADD
p184
sg2
(lp185
sg4
S'cmd'
p186
sg6
(dp187
sg16
S'ADD'
p188
sbsS'*'
p189
(isym
Cmd
p190
(dp191
g11
g97
sg2
(lp192
sg4
S'cmd'
p193
sg6
(dp194
sg16
g94
sbsS'-'
p195
(isym
Cmd
p196
(dp197
g11
g41
sg2
(lp198
sg4
S'cmd'
p199
sg6
(dp200
sg16
g38
sbsS'/'
p201
(isym
Cmd
p202
(dp203
g11
g104
sg2
(lp204
sg4
S'cmd'
p205
sg6
(dp206
sg16
g101
sbsS'.'
p207
(isym
Cmd
p208
(dp209
g11
cforth
DROPALL
p210
sg2
(lp211
sg4
S'cmd'
p212
sg6
(dp213
sg16
S'DROPALL'
p214
sbsS'STM32'
p215
(isym
Mcu
p216
(dp217
g2
(lp218
sg4
S'mcu'
p219
sg6
(dp220
sg16
g215
sbsS'NUM'
p221
(isym
Cmd
p222
(dp223
g11
cforth
NUM
p224
sg2
(lp225
sg4
S'cmd'
p226
sg6
(dp227
sg16
g221
sbsS'SWAP'
p228
(isym
Cmd
p229
(dp230
g11
cforth
SWAP
p231
sg2
(lp232
sg4
S'cmd'
p233
sg6
(dp234
sg16
g228
sbsS'WORDS'
p235
(isym
Cmd
p236
(dp237
g11
cforth
WORDS
p238
sg2
(lp239
sg4
S'cmd'
p240
sg6
(dp241
sg16
g235
sbsS'PRESS'
p242
(isym
Cmd
p243
(dp244
g11
cforth
PRESS
p245
sg2
(lp246
sg4
S'cmd'
p247
sg6
(dp248
sg16
g242
sbsS'TAN'
p249
(isym
Cmd
p250
(dp251
g11
cforth
TAN
p252
sg2
(lp253
sg4
S'cmd'
p254
sg6
(dp255
sg16
g249
sbsS'PI'
p256
(isym
Number
p257
(dp258
g2
(lp259
sg4
S'number'
p260
sg6
(dp261
sg16
F3.141592653589793
sbsS'STACK'
p262
(isym
Cmd
p263
(dp264
g11
cforth
STACK
p265
sg2
(lp266
sg4
S'cmd'
p267
sg6
(dp268
sg16
g262
sbsS'?'
p269
(isym
Cmd
p270
(dp271
g11
cforth
q
p272
sg2
(lp273
sg4
S'cmd'
p274
sg6
(dp275
sg16
S'q'
p276
sbsS'LOAD'
p277
(isym
Cmd
p278
(dp279
g11
cforth
LOAD
p280
sg2
(lp281
sg4
S'cmd'
p282
sg6
(dp283
sg16
g277
sbsS'//'
p284
(isym
Cmd
p285
(dp286
g11
cforth
pPUSH
p287
sg2
(lp288
sg4
S'cmd'
p289
sg6
(dp290
sg16
S'pPUSH'
p291
sbsS'VECTOR'
p292
(isym
Cmd
p293
(dp294
g11
cforth
VECTOR
p295
sg2
(lp296
sg4
S'cmd'
p297
sg6
(dp298
sg16
g292
sbsS'.LOAD'
p299
(isym
Cmd
p300
(dp301
g11
cforth
pLOAD
p302
sg2
(lp303
sg4
S'cmd'
p304
sg6
(dp305
sg16
S'pLOAD'
p306
sbsS'E'
p307
(isym
Number
p308
(dp309
g2
(lp310
sg4
S'number'
p311
sg6
(dp312
sg16
F2.718281828459045
sbsS'x86'
p313
(isym
Arch
p314
(dp315
g2
(lp316
sg4
S'arch'
p317
sg6
(dp318
sg16
g313
sbsS'URL'
p319
(isym
Cmd
p320
(dp321
g11
cforth
URL
p322
sg2
(lp323
sg4
S'cmd'
p324
sg6
(dp325
sg16
g319
sbsS'CPU'
p326
(isym
Cmd
p327
(dp328
g11
cforth
CPU
p329
sg2
(lp330
sg4
S'cmd'
p331
sg6
(dp332
sg16
g326
sbsS'.PUSH'
p333
(isym
Cmd
p334
(dp335
g11
g287
sg2
(lp336
sg4
S'cmd'
p337
sg6
(dp338
sg16
g291
sbsS'VM'
p339
g0
sg188
(isym
Cmd
p340
(dp341
g11
g184
sg2
(lp342
sg4
S'cmd'
p343
sg6
(dp344
sg16
g188
sbsS'!'
p345
(isym
Cmd
p346
(dp347
g11
g111
sg2
(lp348
sg4
S'cmd'
p349
sg6
(dp350
sg16
g115
sbsS'plan'
p351
(ipps
Plan
p352
(dp353
g2
(lp354
sg4
S'plan'
p355
sg6
(dp356
sg16
g351
sbsS'.POP'
p357
(isym
Cmd
p358
(dp359
g11
cforth
pPOP
p360
sg2
(lp361
sg4
S'cmd'
p362
sg6
(dp363
sg16
S'pPOP'
p364
sbsS'DUP'
p365
(isym
Cmd
p366
(dp367
g11
cforth
DUP
p368
sg2
(lp369
sg4
S'cmd'
p370
sg6
(dp371
sg16
g365
sbsS'WORD'
p372
(isym
Cmd
p373
(dp374
g11
cforth
WORD
p375
sg2
(lp376
sg4
S'cmd'
p377
sg6
(dp378
sg16
g372
sbsS'BYE'
p379
(isym
Cmd
p380
(dp381
g11
cforth
BYE
p382
sg2
(lp383
sg4
S'cmd'
p384
sg6
(dp385
sg16
g379
sbsS'SLON'
p386
(isym
Cmd
p387
(dp388
g11
cforth
SLON
p389
sg2
(lp390
sg4
S'cmd'
p391
sg6
(dp392
sg16
g386
sbsS'^'
p393
(isym
Cmd
p394
(dp395
g11
g177
sg2
(lp396
sg4
S'cmd'
p397
sg6
(dp398
sg16
g174
sbsS'FIND'
p399
(isym
Cmd
p400
(dp401
g11
cforth
FIND
p402
sg2
(lp403
sg4
S'cmd'
p404
sg6
(dp405
sg16
g399
sbsS'MAP'
p406
(isym
Cmd
p407
(dp408
g11
cforth
MAP
p409
sg2
(lp410
sg4
S'cmd'
p411
sg6
(dp412
sg16
g406
sbsS'.DEL'
p413
(isym
Cmd
p414
(dp415
g11
cforth
pDEL
p416
sg2
(lp417
sg4
S'cmd'
p418
sg6
(dp419
sg16
S'pDEL'
p420
sbsS'INT'
p421
(isym
Cmd
p422
(dp423
g11
cforth
INT
p424
sg2
(lp425
sg4
S'cmd'
p426
sg6
(dp427
sg16
g421
sbsS'OS'
p428
(isym
Cmd
p429
(dp430
g11
cforth
OS
p431
sg2
(lp432
sg4
S'cmd'
p433
sg6
(dp434
sg16
g428
sbsVRTOS
p435
(isym
Os
p436
(dp437
g2
(lp438
(isym
Os
p439
(dp440
g2
(lp441
sg4
S'os'
p442
sg6
(dp443
Vsuper
p444
(isym
Os
p445
(dp446
g2
g438
sg4
S'os'
p447
sg6
(dp448
sg16
VRTOS
p449
sbssg16
VFreeRTOS
p450
sbasg4
S'os'
p451
sg6
(dp452
sg16
g435
sbsS'SQRT'
p453
(isym
Cmd
p454
(dp455
g11
cforth
SQRT
p456
sg2
(lp457
sg4
S'cmd'
p458
sg6
(dp459
sg16
g453
sbsg214
(isym
Cmd
p460
(dp461
g11
g210
sg2
(lp462
sg4
S'cmd'
p463
sg6
(dp464
sg16
g214
sbsS'INHER'
p465
(isym
Cmd
p466
(dp467
g11
cforth
INHER
p468
sg2
(lp469
sg4
S'cmd'
p470
sg6
(dp471
sg16
g465
sbsS'MCU'
p472
(isym
Cmd
p473
(dp474
g11
cforth
MCU
p475
sg2
(lp476
sg4
S'cmd'
p477
sg6
(dp478
sg16
g472
sbsS'SAVE'
p479
(isym
Cmd
p480
(dp481
g11
cforth
SAVE
p482
sg2
(lp483
sg4
S'cmd'
p484
sg6
(dp485
sg16
g479
sbsS'.FETCH'
p486
(isym
Cmd
p487
(dp488
g11
g48
sg2
(lp489
sg4
S'cmd'
p490
sg6
(dp491
sg16
g52
sbsS'INTERPRET'
p492
(isym
Cmd
p493
(dp494
g11
cforth
INTERPRET
p495
sg2
(lp496
sg4
S'cmd'
p497
sg6
(dp498
sg16
g492
sbsg167
(isym
Cmd
p499
(dp500
g11
g163
sg2
(lp501
sg4
S'cmd'
p502
sg6
(dp503
sg16
g167
sbssg16
S'vm'
p504
sb.