(iforth
FORTH
p0
(dp1
S'nest'
p2
(lp3
sS'type'
p4
S'forth'
p5
sS'attr'
p6
(dp7
S'COS'
p8
(isym
Cmd
p9
(dp10
S'fn'
p11
cforth
COS
p12
sg2
(lp13
sg4
S'cmd'
p14
sg6
(dp15
sS'value'
p16
g8
sbsS'*'
p17
(isym
Cmd
p18
(dp19
g11
cforth
MUL
p20
sg2
(lp21
sg4
S'cmd'
p22
sg6
(dp23
sg16
S'MUL'
p24
sbsS'GROUP'
p25
(isym
Cmd
p26
(dp27
g11
cforth
GROUP
p28
sg2
(lp29
sg4
S'cmd'
p30
sg6
(dp31
sg16
g25
sbsS'SUB'
p32
(isym
Cmd
p33
(dp34
g11
cforth
SUB
p35
sg2
(lp36
sg4
S'cmd'
p37
sg6
(dp38
sg16
g32
sbsS'OVER'
p39
(isym
Cmd
p40
(dp41
g11
cforth
OVER
p42
sg2
(lp43
sg4
S'cmd'
p44
sg6
(dp45
sg16
g39
sbsS'SLON'
p46
(isym
Cmd
p47
(dp48
g11
cforth
SLON
p49
sg2
(lp50
sg4
S'cmd'
p51
sg6
(dp52
sg16
g46
sbsS'EXECUTE'
p53
(isym
Cmd
p54
(dp55
g11
cforth
EXECUTE
p56
sg2
(lp57
sg4
S'cmd'
p58
sg6
(dp59
sg16
g53
sbsS'arm'
p60
(isym
Arch
p61
(dp62
g2
(lp63
sg4
S'arch'
p64
sg6
(dp65
sg16
g60
sbsS'^'
p66
(isym
Cmd
p67
(dp68
g11
cforth
POW
p69
sg2
(lp70
sg4
S'cmd'
p71
sg6
(dp72
sg16
S'POW'
p73
sbsVMETA
p74
(isym
Group
p75
(dp76
g2
(lp77
sg4
S'group'
p78
sg6
(dp79
Vweb
p80
(isym
Group
p81
(dp82
g2
(lp83
sg4
S'group'
p84
sg6
(dp85
VJSON
p86
(isym
Lang
p87
(dp88
g2
(lp89
sg4
S'lang'
p90
sg6
(dp91
sg16
g86
sbsVHTML
p92
(isym
Lang
p93
(dp94
g2
(lp95
sg4
S'lang'
p96
sg6
(dp97
sg16
g92
sbsVCSS
p98
(isym
Lang
p99
(dp100
g2
(lp101
sg4
S'lang'
p102
sg6
(dp103
sg16
g98
sbsVJS
p104
(isym
Lang
p105
(dp106
g2
(lp107
sg4
S'lang'
p108
sg6
(dp109
sg16
g104
sbssg16
g80
sbsVLLVM
p110
(isym
Compiler
p111
(dp112
g2
(lp113
sg4
S'compiler'
p114
sg6
(dp115
sg16
g110
sbsVPython
p116
(isym
Lang
p117
(dp118
g2
(lp119
sg4
S'lang'
p120
sg6
(dp121
sg16
g116
sbsVC89
p122
(isym
Lang
p123
(dp124
g2
(lp125
sg4
S'lang'
p126
sg6
(dp127
VCpp
p128
(isym
Lang
p129
(dp130
g2
(lp131
sg4
S'lang'
p132
sg6
(dp133
sg16
g128
sbssg16
g122
sbsVGo
p134
(isym
Lang
p135
(dp136
g2
(lp137
sg4
S'lang'
p138
sg6
(dp139
sg16
g134
sbsVFORTH
p140
(isym
Lang
p141
(dp142
g2
(lp143
sg4
S'lang'
p144
sg6
(dp145
Vdoc
p146
(isym
Group
p147
(dp148
g2
(lp149
(isym
Url
p150
(dp151
g2
(lp152
sg4
S'url'
p153
sg6
(dp154
sg16
Vhttp://www.forth200x.org/
p155
sbasg4
S'group'
p156
sg6
(dp157
VDPANS94
p158
(isym
Url
p159
(dp160
g2
(lp161
sg4
S'url'
p162
sg6
(dp163
sg16
Vhttp://lars.nocrew.org/dpans/dpans.htm
p164
sbsVhttp://gforth.org
p165
(isym
Symbol
p166
(dp167
g2
(lp168
sg4
S'symbol'
p169
sg6
(dp170
Vurl
p171
(isym
Url
p172
(dp173
g2
(lp174
sg4
S'url'
p175
sg6
(dp176
sg16
Vhttp://gforth.org
p177
sbsVdoc
p178
(isym
String
p179
(dp180
g2
(lp181
sg4
S'string'
p182
sg6
(dp183
sg16
VA free, fast, featureful and portable GNU implementation of the Forth 2012 language
p184
sbssg16
Vgforth
p185
sbsVISO
p186
(isym
String
p187
(dp188
g2
(lp189
sg4
S'string'
p190
sg6
(dp191
sg16
VISO/IEC 15145:1997 Information technology. Programming languages. FORTH
p192
sbssg16
g146
sbsg185
g166
sVcross
p193
(isym
Group
p194
(dp195
g2
(lp196
(isym
Url
p197
(dp198
g2
(lp199
sg4
S'url'
p200
sg6
(dp201
sg16
Vhttp://www.forth.com/downloads/ANS/XCpaper.pdf
p202
sba(isym
Url
p203
(dp204
g2
(lp205
sg4
S'url'
p206
sg6
(dp207
sg16
Vhttp://www.forth.com/downloads/ANS/XCapp5.pdf
p208
sba(isym
Url
p209
(dp210
g2
(lp211
sg4
S'url'
p212
sg6
(dp213
sg16
Vhttps://groups.google.com/forum/#!topic/comp.lang.forth/eYiPcW8uPRY
p214
sbasg4
S'group'
p215
sg6
(dp216
sg16
g193
sbsVpeople
p217
(isym
Group
p218
(dp219
g2
(lp220
sg4
S'group'
p221
sg6
(dp222
VDr.Cactus
p223
(isym
Symbol
p224
(dp225
g2
(lp226
(isym
Url
p227
(dp228
g2
(lp229
sg4
S'url'
p230
sg6
(dp231
sg16
Vhttp://www.forth.org.ru/~cactus/
p232
sbasg4
S'symbol'
p233
sg6
(dp234
Vemail
p235
(isym
String
p236
(dp237
g2
(lp238
sg4
S'string'
p239
sg6
(dp240
sg16
Vcactus@forth.org.ru
p241
sbssg16
g223
sbsVElizabethRather
p242
(isym
String
p243
(dp244
g2
(lp245
sg4
S'string'
p246
sg6
(dp247
sg16
VElizabeth D. Rather
p248
sbssg16
g217
sbssg16
g140
sbssg16
g74
sbsS'SQRT'
p249
(isym
Cmd
p250
(dp251
g11
cforth
SQRT
p252
sg2
(lp253
sg4
S'cmd'
p254
sg6
(dp255
sg16
g249
sbsS'.SAVE'
p256
(isym
Cmd
p257
(dp258
g11
cforth
pSAVE
p259
sg2
(lp260
sg4
S'cmd'
p261
sg6
(dp262
sg16
S'pSAVE'
p263
sbsg24
(isym
Cmd
p264
(dp265
g11
g20
sg2
(lp266
sg4
S'cmd'
p267
sg6
(dp268
sg16
g24
sbsS'DIV'
p269
(isym
Cmd
p270
(dp271
g11
cforth
DIV
p272
sg2
(lp273
sg4
S'cmd'
p274
sg6
(dp275
sg16
g269
sbsS'.'
p276
(isym
Cmd
p277
(dp278
g11
cforth
DROPALL
p279
sg2
(lp280
sg4
S'cmd'
p281
sg6
(dp282
sg16
S'DROPALL'
p283
sbsS'ARCH'
p284
(isym
Cmd
p285
(dp286
g11
cforth
ARCH
p287
sg2
(lp288
sg4
S'cmd'
p289
sg6
(dp290
sg16
g284
sbsS'SIN'
p291
(isym
Cmd
p292
(dp293
g11
cforth
SIN
p294
sg2
(lp295
sg4
S'cmd'
p296
sg6
(dp297
sg16
g291
sbsS'FN'
p298
(isym
Cmd
p299
(dp300
g11
cforth
FN
p301
sg2
(lp302
sg4
S'cmd'
p303
sg6
(dp304
sg16
g298
sbsS'.SLOT'
p305
(isym
Cmd
p306
(dp307
g11
cforth
pSLOT
p308
sg2
(lp309
sg4
S'cmd'
p310
sg6
(dp311
sg16
S'pSLOT'
p312
sbsS'.DROP'
p313
(isym
Cmd
p314
(dp315
g11
cforth
pDROP
p316
sg2
(lp317
sg4
S'cmd'
p318
sg6
(dp319
sg16
S'pDROP'
p320
sbsS'TASK'
p321
(isym
Cmd
p322
(dp323
g11
cforth
TASK
p324
sg2
(lp325
sg4
S'cmd'
p326
sg6
(dp327
sg16
g321
sbsS'WORD'
p328
(isym
Cmd
p329
(dp330
g11
cforth
WORD
p331
sg2
(lp332
sg4
S'cmd'
p333
sg6
(dp334
sg16
g328
sbsS'$'
p335
(isym
Cmd
p336
(dp337
g11
g308
sg2
(lp338
sg4
S'cmd'
p339
sg6
(dp340
sg16
g312
sbsg73
(isym
Cmd
p341
(dp342
g11
g69
sg2
(lp343
sg4
S'cmd'
p344
sg6
(dp345
sg16
g73
sbsS'+'
p346
(isym
Cmd
p347
(dp348
g11
cforth
ADD
p349
sg2
(lp350
sg4
S'cmd'
p351
sg6
(dp352
sg16
S'ADD'
p353
sbsS'DROP'
p354
(isym
Cmd
p355
(dp356
g11
cforth
DROP
p357
sg2
(lp358
sg4
S'cmd'
p359
sg6
(dp360
sg16
g354
sbsS'-'
p361
(isym
Cmd
p362
(dp363
g11
g35
sg2
(lp364
sg4
S'cmd'
p365
sg6
(dp366
sg16
g32
sbsS'/'
p367
(isym
Cmd
p368
(dp369
g11
g272
sg2
(lp370
sg4
S'cmd'
p371
sg6
(dp372
sg16
g269
sbsS'.STORE'
p373
(isym
Cmd
p374
(dp375
g11
cforth
pSTORE
p376
sg2
(lp377
sg4
S'cmd'
p378
sg6
(dp379
sg16
S'pSTORE'
p380
sbsS'STM32'
p381
(isym
Mcu
p382
(dp383
g2
(lp384
sg4
S'mcu'
p385
sg6
(dp386
Vuart
p387
(isym
Group
p388
(dp389
g2
(lp390
sg4
S'group'
p391
sg6
(dp392
VMX_USART2_UART_Init
p393
(isym
Fn
p394
(dp395
g2
(lp396
sg4
S'fn'
p397
sg6
(dp398
sg16
g393
sbsVMX_USART1_UART_Init
p399
(isym
Fn
p400
(dp401
g2
(lp402
sg4
S'fn'
p403
sg6
(dp404
sg16
g399
sbsVMX_USART3_UART_Init
p405
(isym
Fn
p406
(dp407
g2
(lp408
sg4
S'fn'
p409
sg6
(dp410
sg16
g405
sbssg16
g387
sbsVSTM32F0
p411
(isym
Mcu
p412
(dp413
g2
(lp414
sg4
S'mcu'
p415
sg6
(dp416
sg16
g411
sbsVSTM32L0
p417
(isym
Mcu
p418
(dp419
g2
(lp420
sg4
S'mcu'
p421
sg6
(dp422
sg16
g417
sbsVinit
p423
(isym
Symbol
p424
(dp425
g2
(lp426
sg4
S'symbol'
p427
sg6
(dp428
VMX_TIM4_Init
p429
(isym
Fn
p430
(dp431
g2
(lp432
sg4
S'fn'
p433
sg6
(dp434
sg16
g429
sbsVHAL_Init
p435
(isym
Fn
p436
(dp437
g2
(lp438
sg4
S'fn'
p439
sg6
(dp440
sg16
g435
sbsg399
g400
sVMX_RTC_Init
p441
(isym
Fn
p442
(dp443
g2
(lp444
sg4
S'fn'
p445
sg6
(dp446
sg16
g441
sbsg405
g406
sVSystemClock_Config
p447
(isym
Fn
p448
(dp449
g2
(lp450
sg4
S'fn'
p451
sg6
(dp452
sg16
g447
sbsVMX_IWDG_Init
p453
(isym
Fn
p454
(dp455
g2
(lp456
sg4
S'fn'
p457
sg6
(dp458
sg16
g453
sbsVMX_GPIO_Init
p459
(isym
Fn
p460
(dp461
g2
(lp462
sg4
S'fn'
p463
sg6
(dp464
sg16
g459
sbsg393
g394
sVmain
p465
(isym
Fn
p466
(dp467
g2
(lp468
sg4
S'fn'
p469
sg6
(dp470
sg16
g465
sbsVMX_ADC1_Init
p471
(isym
Fn
p472
(dp473
g2
(lp474
sg4
S'fn'
p475
sg6
(dp476
sg16
g471
sbssg16
g423
sbsVadc
p477
(isym
Group
p478
(dp479
g2
(lp480
sg4
S'group'
p481
sg6
(dp482
g471
g472
ssg16
g477
sbsVSTM32F4
p483
(isym
Mcu
p484
(dp485
g2
(lp486
sg4
S'mcu'
p487
sg6
(dp488
sg16
g483
sbsVgpio
p489
(isym
Group
p490
(dp491
g2
(lp492
sg4
S'group'
p493
sg6
(dp494
sg16
g489
sbsVarch
p495
(isym
Arch
p496
(dp497
g2
(lp498
sg4
S'arch'
p499
sg6
(dp500
sg16
S'arm'
p501
sbsVSTM32F1
p502
(isym
Mcu
p503
(dp504
g2
(lp505
sg4
S'mcu'
p506
sg6
(dp507
VSTM32F103
p508
(isym
Mcu
p509
(dp510
g2
(lp511
sg4
S'mcu'
p512
sg6
(dp513
VSTM32F103CBTx
p514
(isym
Mcu
p515
(dp516
g2
(lp517
sg4
S'mcu'
p518
sg6
(dp519
VFLASH
p520
(isym
Integer
p521
(dp522
g2
(lp523
sg4
S'integer'
p524
sg6
(dp525
Vunit
p526
(isym
Symbol
p527
(dp528
g2
(lp529
sg4
S'symbol'
p530
sg6
(dp531
sg16
VKb
p532
sbssg16
I128
sbsVRAM
p533
(isym
Integer
p534
(dp535
g2
(lp536
sg4
S'integer'
p537
sg6
(dp538
Vunit
p539
(isym
Symbol
p540
(dp541
g2
(lp542
sg4
S'symbol'
p543
sg6
(dp544
sg16
VKb
p545
sbssg16
I20
sbsVsuper
p546
g509
ssg16
g514
sbsVsuper
p547
g503
ssg16
g508
sbsVsuper
p548
(isym
Mcu
p549
(dp550
g2
(lp551
sg4
S'mcu'
p552
sg6
g386
sg16
S'STM32'
p553
sbssg16
g502
sbsVdsp
p554
(isym
Group
p555
(dp556
g2
(lp557
sg4
S'group'
p558
sg6
(dp559
g477
g478
ssg16
g554
sbssg16
g381
sbsS'NUM'
p560
(isym
Cmd
p561
(dp562
g11
cforth
NUM
p563
sg2
(lp564
sg4
S'cmd'
p565
sg6
(dp566
sg16
g560
sbsS'SWAP'
p567
(isym
Cmd
p568
(dp569
g11
cforth
SWAP
p570
sg2
(lp571
sg4
S'cmd'
p572
sg6
(dp573
sg16
g567
sbsS'WORDS'
p574
(isym
Cmd
p575
(dp576
g11
cforth
WORDS
p577
sg2
(lp578
sg4
S'cmd'
p579
sg6
(dp580
sg16
g574
sbsS'PRESS'
p581
(isym
Cmd
p582
(dp583
g11
cforth
PRESS
p584
sg2
(lp585
sg4
S'cmd'
p586
sg6
(dp587
sg16
g581
sbsS'.FETCH'
p588
(isym
Cmd
p589
(dp590
g11
cforth
pFETCH
p591
sg2
(lp592
sg4
S'cmd'
p593
sg6
(dp594
sg16
S'pFETCH'
p595
sbsS'TAN'
p596
(isym
Cmd
p597
(dp598
g11
cforth
TAN
p599
sg2
(lp600
sg4
S'cmd'
p601
sg6
(dp602
sg16
g596
sbsS'AXIS'
p603
(isym
Cmd
p604
(dp605
g11
cforth
AXIS
p606
sg2
(lp607
sg4
S'cmd'
p608
sg6
(dp609
sg16
g603
sbsS'STACK'
p610
(isym
Cmd
p611
(dp612
g11
cforth
STACK
p613
sg2
(lp614
sg4
S'cmd'
p615
sg6
(dp616
sg16
g610
sbsS'?'
p617
(isym
Cmd
p618
(dp619
g11
cforth
q
p620
sg2
(lp621
sg4
S'cmd'
p622
sg6
(dp623
sg16
S'q'
p624
sbsS'LOAD'
p625
(isym
Cmd
p626
(dp627
g11
cforth
LOAD
p628
sg2
(lp629
sg4
S'cmd'
p630
sg6
(dp631
sg16
g625
sbsS'@'
p632
(isym
Cmd
p633
(dp634
g11
g591
sg2
(lp635
sg4
S'cmd'
p636
sg6
(dp637
sg16
g595
sbsS'VECTOR'
p638
(isym
Cmd
p639
(dp640
g11
cforth
VECTOR
p641
sg2
(lp642
sg4
S'cmd'
p643
sg6
(dp644
sg16
g638
sbsS'.LOAD'
p645
(isym
Cmd
p646
(dp647
g11
cforth
pLOAD
p648
sg2
(lp649
sg4
S'cmd'
p650
sg6
(dp651
sg16
S'pLOAD'
p652
sbsS'E'
p653
(isym
Number
p654
(dp655
g2
(lp656
sg4
S'number'
p657
sg6
(dp658
sg16
F2.718281828459045
sbsS'x86'
p659
(isym
Arch
p660
(dp661
g2
(lp662
sg4
S'arch'
p663
sg6
(dp664
sg16
g659
sbsS'URL'
p665
(isym
Cmd
p666
(dp667
g11
cforth
URL
p668
sg2
(lp669
sg4
S'cmd'
p670
sg6
(dp671
sg16
g665
sbsS'CPU'
p672
(isym
Cmd
p673
(dp674
g11
cforth
CPU
p675
sg2
(lp676
sg4
S'cmd'
p677
sg6
(dp678
sg16
g672
sbsg514
g515
sS'VM'
p679
(iforth
FORTH
p680
(dp681
g2
(lp682
sg4
S'forth'
p683
sg6
g7
sg16
S'vm'
p684
sbsS'SYNTAX'
p685
(isym
Cmd
p686
(dp687
g11
cforth
SYNTAX
p688
sg2
(lp689
sg4
S'cmd'
p690
sg6
(dp691
sg16
g685
sbsg353
(isym
Cmd
p692
(dp693
g11
g349
sg2
(lp694
sg4
S'cmd'
p695
sg6
(dp696
sg16
g353
sbsS'!'
p697
(isym
Cmd
p698
(dp699
g11
g376
sg2
(lp700
sg4
S'cmd'
p701
sg6
(dp702
sg16
g380
sbsS'plan'
p703
(ipps
Plan
p704
(dp705
g2
(lp706
sg4
S'plan'
p707
sg6
(dp708
sg16
g703
sbsS'.POP'
p709
(isym
Cmd
p710
(dp711
g11
cforth
pPOP
p712
sg2
(lp713
sg4
S'cmd'
p714
sg6
(dp715
sg16
S'pPOP'
p716
sbsS'DUP'
p717
(isym
Cmd
p718
(dp719
g11
cforth
DUP
p720
sg2
(lp721
sg4
S'cmd'
p722
sg6
(dp723
sg16
g717
sbsS'mips'
p724
(isym
Arch
p725
(dp726
g2
(lp727
sg4
S'arch'
p728
sg6
(dp729
sg16
g724
sbsS'BYE'
p730
(isym
Cmd
p731
(dp732
g11
cforth
BYE
p733
sg2
(lp734
sg4
S'cmd'
p735
sg6
(dp736
sg16
g730
sbsS'%'
p737
(isym
Cmd
p738
(dp739
g11
cforth
MOD
p740
sg2
(lp741
sg4
S'cmd'
p742
sg6
(dp743
sg16
S'MOD'
p744
sbsS'.PUSH'
p745
(isym
Cmd
p746
(dp747
g11
cforth
pPUSH
p748
sg2
(lp749
sg4
S'cmd'
p750
sg6
(dp751
sg16
S'pPUSH'
p752
sbsS'LANG'
p753
(isym
Cmd
p754
(dp755
g11
cforth
LANG
p756
sg2
(lp757
sg4
S'cmd'
p758
sg6
(dp759
sg16
g753
sbsS'FIND'
p760
(isym
Cmd
p761
(dp762
g11
cforth
FIND
p763
sg2
(lp764
sg4
S'cmd'
p765
sg6
(dp766
sg16
g760
sbsS'MAP'
p767
(isym
Cmd
p768
(dp769
g11
cforth
MAP
p770
sg2
(lp771
sg4
S'cmd'
p772
sg6
(dp773
sg16
g767
sbsS'PI'
p774
(isym
Number
p775
(dp776
g2
(lp777
sg4
S'number'
p778
sg6
(dp779
sg16
F3.141592653589793
sbsS'.DEL'
p780
(isym
Cmd
p781
(dp782
g11
cforth
pDEL
p783
sg2
(lp784
sg4
S'cmd'
p785
sg6
(dp786
sg16
S'pDEL'
p787
sbsS'INT'
p788
(isym
Cmd
p789
(dp790
g11
cforth
INT
p791
sg2
(lp792
sg4
S'cmd'
p793
sg6
(dp794
sg16
g788
sbsS'//'
p795
(isym
Cmd
p796
(dp797
g11
g748
sg2
(lp798
sg4
S'cmd'
p799
sg6
(dp800
sg16
g752
sbsg140
g141
sS'FROG'
p801
(isym
Cmd
p802
(dp803
g11
cforth
FROG
p804
sg2
(lp805
sg4
S'cmd'
p806
sg6
(dp807
sg16
g801
sbsVbook
p808
(isym
Group
p809
(dp810
g2
(lp811
sg4
S'group'
p812
sg6
(dp813
sg16
g808
sbsg283
(isym
Cmd
p814
(dp815
g11
g279
sg2
(lp816
sg4
S'cmd'
p817
sg6
(dp818
sg16
g283
sbsS'INHER'
p819
(isym
Cmd
p820
(dp821
g11
cforth
INHER
p822
sg2
(lp823
sg4
S'cmd'
p824
sg6
(dp825
sg16
g819
sbsS'MCU'
p826
(isym
Cmd
p827
(dp828
g11
cforth
MCU
p829
sg2
(lp830
sg4
S'cmd'
p831
sg6
(dp832
sg16
g826
sbsS'SAVE'
p833
(isym
Cmd
p834
(dp835
g11
cforth
SAVE
p836
sg2
(lp837
sg4
S'cmd'
p838
sg6
(dp839
sg16
g833
sbsS'OS'
p840
(isym
Cmd
p841
(dp842
g11
cforth
OS
p843
sg2
(lp844
sg4
S'cmd'
p845
sg6
(dp846
sg16
g840
sbsS'COMPILER'
p847
(isym
Cmd
p848
(dp849
g11
cforth
COMPILER
p850
sg2
(lp851
sg4
S'cmd'
p852
sg6
(dp853
sg16
g847
sbsS'INTERPRET'
p854
(isym
Cmd
p855
(dp856
g11
cforth
INTERPRET
p857
sg2
(lp858
sg4
S'cmd'
p859
sg6
(dp860
sg16
g854
sbsg744
(isym
Cmd
p861
(dp862
g11
g740
sg2
(lp863
sg4
S'cmd'
p864
sg6
(dp865
sg16
g744
sbssg16
S'vm'
p866
sb.