(iforth
FORTH
p0
(dp1
S'nest'
p2
(lp3
sS'type'
p4
S'forth'
p5
sS'attr'
p6
(dp7
S'COS'
p8
(isym
Cmd
p9
(dp10
S'fn'
p11
cforth
COS
p12
sg2
(lp13
sg4
S'cmd'
p14
sg6
(dp15
sS'value'
p16
g8
sbsS'*'
p17
(isym
Cmd
p18
(dp19
g11
cforth
MUL
p20
sg2
(lp21
sg4
S'cmd'
p22
sg6
(dp23
sg16
S'MUL'
p24
sbsS'GROUP'
p25
(isym
Cmd
p26
(dp27
g11
cforth
GROUP
p28
sg2
(lp29
sg4
S'cmd'
p30
sg6
(dp31
sg16
g25
sbsS'SUB'
p32
(isym
Cmd
p33
(dp34
g11
cforth
SUB
p35
sg2
(lp36
sg4
S'cmd'
p37
sg6
(dp38
sg16
g32
sbsS'SAVE'
p39
(isym
Cmd
p40
(dp41
g11
cforth
SAVE
p42
sg2
(lp43
sg4
S'cmd'
p44
sg6
(dp45
sg16
g39
sbsS'OVER'
p46
(isym
Cmd
p47
(dp48
g11
cforth
OVER
p49
sg2
(lp50
sg4
S'cmd'
p51
sg6
(dp52
sg16
g46
sbsS'EXECUTE'
p53
(isym
Cmd
p54
(dp55
g11
cforth
EXECUTE
p56
sg2
(lp57
sg4
S'cmd'
p58
sg6
(dp59
sg16
g53
sbsS'arm'
p60
(isym
Arch
p61
(dp62
g2
(lp63
sg4
S'arch'
p64
sg6
(dp65
sg16
g60
sbsS'SQRT'
p66
(isym
Cmd
p67
(dp68
g11
cforth
SQRT
p69
sg2
(lp70
sg4
S'cmd'
p71
sg6
(dp72
sg16
g66
sbsS'.SAVE'
p73
(isym
Cmd
p74
(dp75
g11
cforth
pSAVE
p76
sg2
(lp77
sg4
S'cmd'
p78
sg6
(dp79
sg16
S'pSAVE'
p80
sbsg24
(isym
Cmd
p81
(dp82
g11
g20
sg2
(lp83
sg4
S'cmd'
p84
sg6
(dp85
sg16
g24
sbsS'DIV'
p86
(isym
Cmd
p87
(dp88
g11
cforth
DIV
p89
sg2
(lp90
sg4
S'cmd'
p91
sg6
(dp92
sg16
g86
sbsS'.'
p93
(isym
Cmd
p94
(dp95
g11
cforth
DROPALL
p96
sg2
(lp97
sg4
S'cmd'
p98
sg6
(dp99
sg16
S'DROPALL'
p100
sbsS'ARCH'
p101
(isym
Cmd
p102
(dp103
g11
cforth
ARCH
p104
sg2
(lp105
sg4
S'cmd'
p106
sg6
(dp107
sg16
g101
sbsS'SIN'
p108
(isym
Cmd
p109
(dp110
g11
cforth
SIN
p111
sg2
(lp112
sg4
S'cmd'
p113
sg6
(dp114
sg16
g108
sbsS'FN'
p115
(isym
Cmd
p116
(dp117
g11
cforth
FN
p118
sg2
(lp119
sg4
S'cmd'
p120
sg6
(dp121
sg16
g115
sbsS'.SLOT'
p122
(isym
Cmd
p123
(dp124
g11
cforth
pSLOT
p125
sg2
(lp126
sg4
S'cmd'
p127
sg6
(dp128
sg16
S'pSLOT'
p129
sbsS'.DROP'
p130
(isym
Cmd
p131
(dp132
g11
cforth
pDROP
p133
sg2
(lp134
sg4
S'cmd'
p135
sg6
(dp136
sg16
S'pDROP'
p137
sbsS'TASK'
p138
(isym
Cmd
p139
(dp140
g11
cforth
TASK
p141
sg2
(lp142
sg4
S'cmd'
p143
sg6
(dp144
sg16
g138
sbsS'WORD'
p145
(isym
Cmd
p146
(dp147
g11
cforth
WORD
p148
sg2
(lp149
sg4
S'cmd'
p150
sg6
(dp151
sg16
g145
sbsS'$'
p152
(isym
Cmd
p153
(dp154
g11
g125
sg2
(lp155
sg4
S'cmd'
p156
sg6
(dp157
sg16
g129
sbsS'POW'
p158
(isym
Cmd
p159
(dp160
g11
cforth
POW
p161
sg2
(lp162
sg4
S'cmd'
p163
sg6
(dp164
sg16
g158
sbsS'+'
p165
(isym
Cmd
p166
(dp167
g11
cforth
ADD
p168
sg2
(lp169
sg4
S'cmd'
p170
sg6
(dp171
sg16
S'ADD'
p172
sbsS'DROP'
p173
(isym
Cmd
p174
(dp175
g11
cforth
DROP
p176
sg2
(lp177
sg4
S'cmd'
p178
sg6
(dp179
sg16
g173
sbsS'-'
p180
(isym
Cmd
p181
(dp182
g11
g35
sg2
(lp183
sg4
S'cmd'
p184
sg6
(dp185
sg16
g32
sbsS'/'
p186
(isym
Cmd
p187
(dp188
g11
g89
sg2
(lp189
sg4
S'cmd'
p190
sg6
(dp191
sg16
g86
sbsS'.STORE'
p192
(isym
Cmd
p193
(dp194
g11
cforth
pSTORE
p195
sg2
(lp196
sg4
S'cmd'
p197
sg6
(dp198
sg16
S'pSTORE'
p199
sbsS'STM32'
p200
(isym
Mcu
p201
(dp202
g2
(lp203
sg4
S'mcu'
p204
sg6
(dp205
Vuart
p206
(isym
Group
p207
(dp208
g2
(lp209
sg4
S'group'
p210
sg6
(dp211
VMX_USART2_UART_Init
p212
(isym
Fn
p213
(dp214
g2
(lp215
sg4
S'fn'
p216
sg6
(dp217
sg16
g212
sbsVMX_USART1_UART_Init
p218
(isym
Fn
p219
(dp220
g2
(lp221
sg4
S'fn'
p222
sg6
(dp223
sg16
g218
sbsVMX_USART3_UART_Init
p224
(isym
Fn
p225
(dp226
g2
(lp227
sg4
S'fn'
p228
sg6
(dp229
sg16
g224
sbssg16
g206
sbsVSTM32F0
p230
(isym
Mcu
p231
(dp232
g2
(lp233
sg4
S'mcu'
p234
sg6
(dp235
sg16
g230
sbsVSTM32L0
p236
(isym
Mcu
p237
(dp238
g2
(lp239
sg4
S'mcu'
p240
sg6
(dp241
sg16
g236
sbsVinit
p242
(isym
Symbol
p243
(dp244
g2
(lp245
sg4
S'symbol'
p246
sg6
(dp247
VMX_TIM4_Init
p248
(isym
Fn
p249
(dp250
g2
(lp251
sg4
S'fn'
p252
sg6
(dp253
sg16
g248
sbsVHAL_Init
p254
(isym
Fn
p255
(dp256
g2
(lp257
sg4
S'fn'
p258
sg6
(dp259
sg16
g254
sbsg218
g219
sVMX_RTC_Init
p260
(isym
Fn
p261
(dp262
g2
(lp263
sg4
S'fn'
p264
sg6
(dp265
sg16
g260
sbsg224
g225
sVSystemClock_Config
p266
(isym
Fn
p267
(dp268
g2
(lp269
sg4
S'fn'
p270
sg6
(dp271
sg16
g266
sbsVMX_IWDG_Init
p272
(isym
Fn
p273
(dp274
g2
(lp275
sg4
S'fn'
p276
sg6
(dp277
sg16
g272
sbsVMX_GPIO_Init
p278
(isym
Fn
p279
(dp280
g2
(lp281
sg4
S'fn'
p282
sg6
(dp283
sg16
g278
sbsg212
g213
sVmain
p284
(isym
Fn
p285
(dp286
g2
(lp287
sg4
S'fn'
p288
sg6
(dp289
sg16
g284
sbsVMX_ADC1_Init
p290
(isym
Fn
p291
(dp292
g2
(lp293
sg4
S'fn'
p294
sg6
(dp295
sg16
g290
sbssg16
g242
sbsVadc
p296
(isym
Group
p297
(dp298
g2
(lp299
sg4
S'group'
p300
sg6
(dp301
g290
g291
ssg16
g296
sbsVSTM32F4
p302
(isym
Mcu
p303
(dp304
g2
(lp305
sg4
S'mcu'
p306
sg6
(dp307
sg16
g302
sbsVgpio
p308
(isym
Group
p309
(dp310
g2
(lp311
sg4
S'group'
p312
sg6
(dp313
sg16
g308
sbsVarch
p314
(isym
Arch
p315
(dp316
g2
(lp317
sg4
S'arch'
p318
sg6
(dp319
sg16
S'arm'
p320
sbsVSTM32F1
p321
(isym
Mcu
p322
(dp323
g2
(lp324
sg4
S'mcu'
p325
sg6
(dp326
VSTM32F103
p327
(isym
Mcu
p328
(dp329
g2
(lp330
sg4
S'mcu'
p331
sg6
(dp332
VSTM32F103CBTx
p333
(isym
Mcu
p334
(dp335
g2
(lp336
sg4
S'mcu'
p337
sg6
(dp338
Vuart
p339
(isym
Group
p340
(dp341
g2
(lp342
sg4
S'group'
p343
sg6
(dp344
VABR
p345
(isym
Symbol
p346
(dp347
g2
(lp348
(isym
Symbol
p349
(dp350
g2
(lp351
sg4
S'symbol'
p352
sg6
(dp353
sg16
Vno
p354
sbasg4
S'symbol'
p355
sg6
(dp356
Vdoc
p357
(isym
String
p358
(dp359
g2
(lp360
sg4
S'string'
p361
sg6
(dp362
sg16
Vautomatic baud rate detection
p363
sbssg16
g345
sbssg16
Vuart
p364
sbsVRAM
p365
(isym
Integer
p366
(dp367
g2
(lp368
sg4
S'integer'
p369
sg6
(dp370
Vunit
p371
(isym
Symbol
p372
(dp373
g2
(lp374
sg4
S'symbol'
p375
sg6
(dp376
sg16
VKb
p377
sbssg16
I20
sbsVFLASH
p378
(isym
Integer
p379
(dp380
g2
(lp381
sg4
S'integer'
p382
sg6
(dp383
Vunit
p384
(isym
Symbol
p385
(dp386
g2
(lp387
sg4
S'symbol'
p388
sg6
(dp389
sg16
VKb
p390
sbssg16
I128
sbsVsuper
p391
g328
ssg16
g333
sbsVsuper
p392
g322
ssg16
g327
sbsVsuper
p393
(isym
Mcu
p394
(dp395
g2
(lp396
sg4
S'mcu'
p397
sg6
g205
sg16
S'STM32'
p398
sbssg16
g321
sbsVdsp
p399
(isym
Group
p400
(dp401
g2
(lp402
sg4
S'group'
p403
sg6
(dp404
g296
g297
ssg16
g399
sbssg16
g200
sbsS'NUM'
p405
(isym
Cmd
p406
(dp407
g11
cforth
NUM
p408
sg2
(lp409
sg4
S'cmd'
p410
sg6
(dp411
sg16
g405
sbsS'SWAP'
p412
(isym
Cmd
p413
(dp414
g11
cforth
SWAP
p415
sg2
(lp416
sg4
S'cmd'
p417
sg6
(dp418
sg16
g412
sbsS'WORDS'
p419
(isym
Cmd
p420
(dp421
g11
cforth
WORDS
p422
sg2
(lp423
sg4
S'cmd'
p424
sg6
(dp425
sg16
g419
sbsS'PRESS'
p426
(isym
Cmd
p427
(dp428
g11
cforth
PRESS
p429
sg2
(lp430
sg4
S'cmd'
p431
sg6
(dp432
sg16
g426
sbsS'.FETCH'
p433
(isym
Cmd
p434
(dp435
g11
cforth
pFETCH
p436
sg2
(lp437
sg4
S'cmd'
p438
sg6
(dp439
sg16
S'pFETCH'
p440
sbsS'TAN'
p441
(isym
Cmd
p442
(dp443
g11
cforth
TAN
p444
sg2
(lp445
sg4
S'cmd'
p446
sg6
(dp447
sg16
g441
sbsS'AXIS'
p448
(isym
Cmd
p449
(dp450
g11
cforth
AXIS
p451
sg2
(lp452
sg4
S'cmd'
p453
sg6
(dp454
sg16
g448
sbsS'STACK'
p455
(isym
Cmd
p456
(dp457
g11
cforth
STACK
p458
sg2
(lp459
sg4
S'cmd'
p460
sg6
(dp461
sg16
g455
sbsS'?'
p462
(isym
Cmd
p463
(dp464
g11
cforth
q
p465
sg2
(lp466
sg4
S'cmd'
p467
sg6
(dp468
sg16
S'q'
p469
sbsS'LOAD'
p470
(isym
Cmd
p471
(dp472
g11
cforth
LOAD
p473
sg2
(lp474
sg4
S'cmd'
p475
sg6
(dp476
sg16
g470
sbsS'@'
p477
(isym
Cmd
p478
(dp479
g11
g436
sg2
(lp480
sg4
S'cmd'
p481
sg6
(dp482
sg16
g440
sbsS'VECTOR'
p483
(isym
Cmd
p484
(dp485
g11
cforth
VECTOR
p486
sg2
(lp487
sg4
S'cmd'
p488
sg6
(dp489
sg16
g483
sbsS'.LOAD'
p490
(isym
Cmd
p491
(dp492
g11
cforth
pLOAD
p493
sg2
(lp494
sg4
S'cmd'
p495
sg6
(dp496
sg16
S'pLOAD'
p497
sbsS'E'
p498
(isym
Number
p499
(dp500
g2
(lp501
sg4
S'number'
p502
sg6
(dp503
sg16
F2.718281828459045
sbsS'x86'
p504
(isym
Arch
p505
(dp506
g2
(lp507
sg4
S'arch'
p508
sg6
(dp509
sg16
g504
sbsS'URL'
p510
(isym
Cmd
p511
(dp512
g11
cforth
URL
p513
sg2
(lp514
sg4
S'cmd'
p515
sg6
(dp516
sg16
g510
sbsS'CPU'
p517
(isym
Cmd
p518
(dp519
g11
cforth
CPU
p520
sg2
(lp521
sg4
S'cmd'
p522
sg6
(dp523
sg16
g517
sbsg333
g334
sS'VM'
p524
(iforth
FORTH
p525
(dp526
g2
(lp527
sg4
S'forth'
p528
sg6
g7
sg16
S'vm'
p529
sbsg172
(isym
Cmd
p530
(dp531
g11
g168
sg2
(lp532
sg4
S'cmd'
p533
sg6
(dp534
sg16
g172
sbsS'!'
p535
(isym
Cmd
p536
(dp537
g11
g195
sg2
(lp538
sg4
S'cmd'
p539
sg6
(dp540
sg16
g199
sbsS'plan'
p541
(ipps
Plan
p542
(dp543
g2
(lp544
sg4
S'plan'
p545
sg6
(dp546
sg16
g541
sbsS'.POP'
p547
(isym
Cmd
p548
(dp549
g11
cforth
pPOP
p550
sg2
(lp551
sg4
S'cmd'
p552
sg6
(dp553
sg16
S'pPOP'
p554
sbsS'DUP'
p555
(isym
Cmd
p556
(dp557
g11
cforth
DUP
p558
sg2
(lp559
sg4
S'cmd'
p560
sg6
(dp561
sg16
g555
sbsS'mips'
p562
(isym
Arch
p563
(dp564
g2
(lp565
sg4
S'arch'
p566
sg6
(dp567
sg16
g562
sbsS'BYE'
p568
(isym
Cmd
p569
(dp570
g11
cforth
BYE
p571
sg2
(lp572
sg4
S'cmd'
p573
sg6
(dp574
sg16
g568
sbsS'SLON'
p575
(isym
Cmd
p576
(dp577
g11
cforth
SLON
p578
sg2
(lp579
sg4
S'cmd'
p580
sg6
(dp581
sg16
g575
sbsS'.PUSH'
p582
(isym
Cmd
p583
(dp584
g11
cforth
pPUSH
p585
sg2
(lp586
sg4
S'cmd'
p587
sg6
(dp588
sg16
S'pPUSH'
p589
sbsS'^'
p590
(isym
Cmd
p591
(dp592
g11
g161
sg2
(lp593
sg4
S'cmd'
p594
sg6
(dp595
sg16
g158
sbsS'FIND'
p596
(isym
Cmd
p597
(dp598
g11
cforth
FIND
p599
sg2
(lp600
sg4
S'cmd'
p601
sg6
(dp602
sg16
g596
sbsS'MAP'
p603
(isym
Cmd
p604
(dp605
g11
cforth
MAP
p606
sg2
(lp607
sg4
S'cmd'
p608
sg6
(dp609
sg16
g603
sbsS'PI'
p610
(isym
Number
p611
(dp612
g2
(lp613
sg4
S'number'
p614
sg6
(dp615
sg16
F3.141592653589793
sbsS'.DEL'
p616
(isym
Cmd
p617
(dp618
g11
cforth
pDEL
p619
sg2
(lp620
sg4
S'cmd'
p621
sg6
(dp622
sg16
S'pDEL'
p623
sbsS'INT'
p624
(isym
Cmd
p625
(dp626
g11
cforth
INT
p627
sg2
(lp628
sg4
S'cmd'
p629
sg6
(dp630
sg16
g624
sbsS'//'
p631
(isym
Cmd
p632
(dp633
g11
g585
sg2
(lp634
sg4
S'cmd'
p635
sg6
(dp636
sg16
g589
sbsVRTOS
p637
(isym
Os
p638
(dp639
g2
(lp640
(isym
Os
p641
(dp642
g2
(lp643
sg4
S'os'
p644
sg6
(dp645
Vsuper
p646
(isym
Os
p647
(dp648
g2
g640
sg4
S'os'
p649
sg6
(dp650
sg16
VRTOS
p651
sbssg16
VFreeRTOS
p652
sbasg4
S'os'
p653
sg6
(dp654
Vqueue
p655
(isym
Symbol
p656
(dp657
g2
(lp658
sg4
S'symbol'
p659
sg6
(dp660
sg16
g655
sbsVtask
p661
(isym
String
p662
(dp663
g2
(lp664
sg4
S'string'
p665
sg6
(dp666
Vstate
p667
(isym
Symbol
p668
(dp669
g2
(lp670
sg4
S'symbol'
p671
sg6
(dp672
VREADY
p673
(isym
Symbol
p674
(dp675
g2
(lp676
sg4
S'symbol'
p677
sg6
(dp678
sg16
g673
sbsVIDLE
p679
(isym
Symbol
p680
(dp681
g2
(lp682
sg4
S'symbol'
p683
sg6
(dp684
sg16
VIDLE
p685
sbsVSUSPEND
p686
(isym
Symbol
p687
(dp688
g2
(lp689
sg4
S'symbol'
p690
sg6
(dp691
sg16
g686
sbsVRUN
p692
(isym
Symbol
p693
(dp694
g2
(lp695
sg4
S'symbol'
p696
sg6
(dp697
sg16
g692
sbsVWAIT
p698
(isym
Symbol
p699
(dp700
g2
(lp701
sg4
S'symbol'
p702
sg6
(dp703
sg16
g698
sbssg16
g667
sbssg16
g661
sbsVdoc
p704
(isym
Url
p705
(dp706
g2
(lp707
sg4
S'url'
p708
sg6
(dp709
sg16
Vhttp://easyelectronics.ru/freertos_manual.html
p710
sbsVtimer
p711
(isym
Symbol
p712
(dp713
g2
(lp714
sg4
S'symbol'
p715
sg6
(dp716
sg16
g711
sbsVsheduler
p717
(isym
Symbol
p718
(dp719
g2
(lp720
sg4
S'symbol'
p721
sg6
(dp722
Vpreemptive
p723
(isym
Symbol
p724
(dp725
g2
(lp726
sg4
S'symbol'
p727
sg6
(dp728
sg16
g723
sbsVcooperative
p729
(isym
Symbol
p730
(dp731
g2
(lp732
sg4
S'symbol'
p733
sg6
(dp734
sg16
g729
sbssg16
Vsheduler
p735
sbsVmutex
p736
(isym
Symbol
p737
(dp738
g2
(lp739
sg4
S'symbol'
p740
sg6
(dp741
sg16
g736
sbsVtimeout
p742
(isym
Symbol
p743
(dp744
g2
(lp745
sg4
S'symbol'
p746
sg6
(dp747
sg16
g742
sbsVsemaphore
p748
(isym
Symbol
p749
(dp750
g2
(lp751
sg4
S'symbol'
p752
sg6
(dp753
sg16
g748
sbssg16
g637
sbsS'FROG'
p754
(isym
Cmd
p755
(dp756
g11
cforth
FROG
p757
sg2
(lp758
sg4
S'cmd'
p759
sg6
(dp760
sg16
g754
sbsg100
(isym
Cmd
p761
(dp762
g11
g96
sg2
(lp763
sg4
S'cmd'
p764
sg6
(dp765
sg16
g100
sbsS'INHER'
p766
(isym
Cmd
p767
(dp768
g11
cforth
INHER
p769
sg2
(lp770
sg4
S'cmd'
p771
sg6
(dp772
sg16
g766
sbsS'MCU'
p773
(isym
Cmd
p774
(dp775
g11
cforth
MCU
p776
sg2
(lp777
sg4
S'cmd'
p778
sg6
(dp779
sg16
g773
sbsS'%'
p780
(isym
Cmd
p781
(dp782
g11
cforth
MOD
p783
sg2
(lp784
sg4
S'cmd'
p785
sg6
(dp786
sg16
S'MOD'
p787
sbsS'OS'
p788
(isym
Cmd
p789
(dp790
g11
cforth
OS
p791
sg2
(lp792
sg4
S'cmd'
p793
sg6
(dp794
sg16
g788
sbsS'INTERPRET'
p795
(isym
Cmd
p796
(dp797
g11
cforth
INTERPRET
p798
sg2
(lp799
sg4
S'cmd'
p800
sg6
(dp801
sg16
g795
sbsg787
(isym
Cmd
p802
(dp803
g11
g783
sg2
(lp804
sg4
S'cmd'
p805
sg6
(dp806
sg16
g787
sbssg16
S'vm'
p807
sb.