(iforth
FORTH
p0
(dp1
S'nest'
p2
(lp3
sS'type'
p4
S'forth'
p5
sS'attr'
p6
(dp7
S'COS'
p8
(isym
Cmd
p9
(dp10
S'fn'
p11
cforth
COS
p12
sg2
(lp13
sg4
S'cmd'
p14
sg6
(dp15
sS'value'
p16
g8
sbsS'*'
p17
(isym
Cmd
p18
(dp19
g11
cforth
MUL
p20
sg2
(lp21
sg4
S'cmd'
p22
sg6
(dp23
sg16
S'MUL'
p24
sbsS'GROUP'
p25
(isym
Cmd
p26
(dp27
g11
cforth
GROUP
p28
sg2
(lp29
sg4
S'cmd'
p30
sg6
(dp31
sg16
g25
sbsS'SUB'
p32
(isym
Cmd
p33
(dp34
g11
cforth
SUB
p35
sg2
(lp36
sg4
S'cmd'
p37
sg6
(dp38
sg16
g32
sbsS'OVER'
p39
(isym
Cmd
p40
(dp41
g11
cforth
OVER
p42
sg2
(lp43
sg4
S'cmd'
p44
sg6
(dp45
sg16
g39
sbsS'DROPALL'
p46
(isym
Cmd
p47
(dp48
g11
cforth
DROPALL
p49
sg2
(lp50
sg4
S'cmd'
p51
sg6
(dp52
sg16
g46
sbsS'EXECUTE'
p53
(isym
Cmd
p54
(dp55
g11
cforth
EXECUTE
p56
sg2
(lp57
sg4
S'cmd'
p58
sg6
(dp59
sg16
g53
sbsS'arm'
p60
(isym
Arch
p61
(dp62
g2
(lp63
sg4
S'arch'
p64
sg6
(dp65
sg16
g60
sbsS'^'
p66
(isym
Cmd
p67
(dp68
g11
cforth
POW
p69
sg2
(lp70
sg4
S'cmd'
p71
sg6
(dp72
sg16
S'POW'
p73
sbsVMETA
p74
(isym
Group
p75
(dp76
g2
(lp77
sg4
S'group'
p78
sg6
(dp79
Vweb
p80
(isym
Group
p81
(dp82
g2
(lp83
sg4
S'group'
p84
sg6
(dp85
VJSON
p86
(isym
Lang
p87
(dp88
g2
(lp89
sg4
S'lang'
p90
sg6
(dp91
sg16
g86
sbsVHTML
p92
(isym
Lang
p93
(dp94
g2
(lp95
sg4
S'lang'
p96
sg6
(dp97
sg16
g92
sbsVCSS
p98
(isym
Lang
p99
(dp100
g2
(lp101
sg4
S'lang'
p102
sg6
(dp103
sg16
g98
sbsVJS
p104
(isym
Lang
p105
(dp106
g2
(lp107
sg4
S'lang'
p108
sg6
(dp109
sg16
g104
sbssg16
g80
sbsVLLVM
p110
(isym
Compiler
p111
(dp112
g2
(lp113
sg4
S'compiler'
p114
sg6
(dp115
sg16
g110
sbsVPython
p116
(isym
Lang
p117
(dp118
g2
(lp119
sg4
S'lang'
p120
sg6
(dp121
sg16
g116
sbsVC89
p122
(isym
Lang
p123
(dp124
g2
(lp125
sg4
S'lang'
p126
sg6
(dp127
VCpp
p128
(isym
Lang
p129
(dp130
g2
(lp131
sg4
S'lang'
p132
sg6
(dp133
sg16
g128
sbssg16
g122
sbsVGo
p134
(isym
Lang
p135
(dp136
g2
(lp137
sg4
S'lang'
p138
sg6
(dp139
sg16
g134
sbsVFORTH
p140
(isym
Lang
p141
(dp142
g2
(lp143
sg4
S'lang'
p144
sg6
(dp145
sg16
g140
sbssg16
g74
sbsS'SQRT'
p146
(isym
Cmd
p147
(dp148
g11
cforth
SQRT
p149
sg2
(lp150
sg4
S'cmd'
p151
sg6
(dp152
sg16
g146
sbsS'WORD'
p153
(isym
Cmd
p154
(dp155
g11
cforth
WORD
p156
sg2
(lp157
sg4
S'cmd'
p158
sg6
(dp159
sg16
g153
sbsS'.SAVE'
p160
(isym
Cmd
p161
(dp162
g11
cforth
pSAVE
p163
sg2
(lp164
sg4
S'cmd'
p165
sg6
(dp166
sg16
S'pSAVE'
p167
sbsg24
(isym
Cmd
p168
(dp169
g11
g20
sg2
(lp170
sg4
S'cmd'
p171
sg6
(dp172
sg16
g24
sbsS'DIV'
p173
(isym
Cmd
p174
(dp175
g11
cforth
DIV
p176
sg2
(lp177
sg4
S'cmd'
p178
sg6
(dp179
sg16
g173
sbsS'.'
p180
(isym
Cmd
p181
(dp182
g11
g49
sg2
(lp183
sg4
S'cmd'
p184
sg6
(dp185
sg16
g46
sbsS'ARCH'
p186
(isym
Cmd
p187
(dp188
g11
cforth
ARCH
p189
sg2
(lp190
sg4
S'cmd'
p191
sg6
(dp192
sg16
g186
sbsS'SIN'
p193
(isym
Cmd
p194
(dp195
g11
cforth
SIN
p196
sg2
(lp197
sg4
S'cmd'
p198
sg6
(dp199
sg16
g193
sbsS'FN'
p200
(isym
Cmd
p201
(dp202
g11
cforth
FN
p203
sg2
(lp204
sg4
S'cmd'
p205
sg6
(dp206
sg16
g200
sbsS'.SLOT'
p207
(isym
Cmd
p208
(dp209
g11
cforth
pSLOT
p210
sg2
(lp211
sg4
S'cmd'
p212
sg6
(dp213
sg16
S'pSLOT'
p214
sbsS'.DROP'
p215
(isym
Cmd
p216
(dp217
g11
cforth
pDROP
p218
sg2
(lp219
sg4
S'cmd'
p220
sg6
(dp221
sg16
S'pDROP'
p222
sbsS'TASK'
p223
(isym
Cmd
p224
(dp225
g11
cforth
TASK
p226
sg2
(lp227
sg4
S'cmd'
p228
sg6
(dp229
sg16
g223
sbsS'%'
p230
(isym
Cmd
p231
(dp232
g11
cforth
MOD
p233
sg2
(lp234
sg4
S'cmd'
p235
sg6
(dp236
sg16
S'MOD'
p237
sbsS'$'
p238
(isym
Cmd
p239
(dp240
g11
g210
sg2
(lp241
sg4
S'cmd'
p242
sg6
(dp243
sg16
g214
sbsg73
(isym
Cmd
p244
(dp245
g11
g69
sg2
(lp246
sg4
S'cmd'
p247
sg6
(dp248
sg16
g73
sbsS'+'
p249
(isym
Cmd
p250
(dp251
g11
cforth
ADD
p252
sg2
(lp253
sg4
S'cmd'
p254
sg6
(dp255
sg16
S'ADD'
p256
sbsS'DROP'
p257
(isym
Cmd
p258
(dp259
g11
cforth
DROP
p260
sg2
(lp261
sg4
S'cmd'
p262
sg6
(dp263
sg16
g257
sbsS'-'
p264
(isym
Cmd
p265
(dp266
g11
g35
sg2
(lp267
sg4
S'cmd'
p268
sg6
(dp269
sg16
g32
sbsS'/'
p270
(isym
Cmd
p271
(dp272
g11
g176
sg2
(lp273
sg4
S'cmd'
p274
sg6
(dp275
sg16
g173
sbsS'.STORE'
p276
(isym
Cmd
p277
(dp278
g11
cforth
pSTORE
p279
sg2
(lp280
sg4
S'cmd'
p281
sg6
(dp282
sg16
S'pSTORE'
p283
sbsS'STM32'
p284
(isym
Mcu
p285
(dp286
g2
(lp287
sg4
S'mcu'
p288
sg6
(dp289
Vuart
p290
(isym
Group
p291
(dp292
g2
(lp293
sg4
S'group'
p294
sg6
(dp295
VMX_USART2_UART_Init
p296
(isym
Fn
p297
(dp298
g2
(lp299
sg4
S'fn'
p300
sg6
(dp301
sg16
g296
sbsVMX_USART1_UART_Init
p302
(isym
Fn
p303
(dp304
g2
(lp305
sg4
S'fn'
p306
sg6
(dp307
sg16
g302
sbsVMX_USART3_UART_Init
p308
(isym
Fn
p309
(dp310
g2
(lp311
sg4
S'fn'
p312
sg6
(dp313
sg16
g308
sbssg16
g290
sbsVSTM32F0
p314
(isym
Mcu
p315
(dp316
g2
(lp317
sg4
S'mcu'
p318
sg6
(dp319
sg16
g314
sbsVSTM32L0
p320
(isym
Mcu
p321
(dp322
g2
(lp323
sg4
S'mcu'
p324
sg6
(dp325
sg16
g320
sbsVinit
p326
(isym
Symbol
p327
(dp328
g2
(lp329
sg4
S'symbol'
p330
sg6
(dp331
VMX_TIM4_Init
p332
(isym
Fn
p333
(dp334
g2
(lp335
sg4
S'fn'
p336
sg6
(dp337
sg16
g332
sbsVHAL_Init
p338
(isym
Fn
p339
(dp340
g2
(lp341
sg4
S'fn'
p342
sg6
(dp343
sg16
g338
sbsg302
g303
sVMX_RTC_Init
p344
(isym
Fn
p345
(dp346
g2
(lp347
sg4
S'fn'
p348
sg6
(dp349
sg16
g344
sbsg308
g309
sVSystemClock_Config
p350
(isym
Fn
p351
(dp352
g2
(lp353
sg4
S'fn'
p354
sg6
(dp355
sg16
g350
sbsVMX_IWDG_Init
p356
(isym
Fn
p357
(dp358
g2
(lp359
sg4
S'fn'
p360
sg6
(dp361
sg16
g356
sbsVMX_GPIO_Init
p362
(isym
Fn
p363
(dp364
g2
(lp365
sg4
S'fn'
p366
sg6
(dp367
sg16
g362
sbsg296
g297
sVmain
p368
(isym
Fn
p369
(dp370
g2
(lp371
sg4
S'fn'
p372
sg6
(dp373
sg16
g368
sbsVMX_ADC1_Init
p374
(isym
Fn
p375
(dp376
g2
(lp377
sg4
S'fn'
p378
sg6
(dp379
sg16
g374
sbssg16
g326
sbsVadc
p380
(isym
Group
p381
(dp382
g2
(lp383
sg4
S'group'
p384
sg6
(dp385
g374
g375
ssg16
g380
sbsVSTM32F4
p386
(isym
Mcu
p387
(dp388
g2
(lp389
sg4
S'mcu'
p390
sg6
(dp391
sg16
g386
sbsVgpio
p392
(isym
Group
p393
(dp394
g2
(lp395
sg4
S'group'
p396
sg6
(dp397
sg16
g392
sbsVarch
p398
(isym
Arch
p399
(dp400
g2
(lp401
sg4
S'arch'
p402
sg6
(dp403
sg16
S'arm'
p404
sbsVSTM32F1
p405
(isym
Mcu
p406
(dp407
g2
(lp408
sg4
S'mcu'
p409
sg6
(dp410
VSTM32F103
p411
(isym
Mcu
p412
(dp413
g2
(lp414
sg4
S'mcu'
p415
sg6
(dp416
VSTM32F103CBTx
p417
(isym
Mcu
p418
(dp419
g2
(lp420
sg4
S'mcu'
p421
sg6
(dp422
VRAM
p423
(isym
Integer
p424
(dp425
g2
(lp426
sg4
S'integer'
p427
sg6
(dp428
Vunit
p429
(isym
Symbol
p430
(dp431
g2
(lp432
sg4
S'symbol'
p433
sg6
(dp434
sg16
VKb
p435
sbssg16
I20
sbsVFLASH
p436
(isym
Integer
p437
(dp438
g2
(lp439
sg4
S'integer'
p440
sg6
(dp441
Vunit
p442
(isym
Symbol
p443
(dp444
g2
(lp445
sg4
S'symbol'
p446
sg6
(dp447
sg16
VKb
p448
sbssg16
I128
sbsVsuper
p449
g412
ssg16
g417
sbsVsuper
p450
g406
ssg16
g411
sbsVsuper
p451
(isym
Mcu
p452
(dp453
g2
(lp454
sg4
S'mcu'
p455
sg6
g289
sg16
S'STM32'
p456
sbssg16
g405
sbsVdsp
p457
(isym
Group
p458
(dp459
g2
(lp460
sg4
S'group'
p461
sg6
(dp462
g380
g381
ssg16
g457
sbssg16
g284
sbsS'NUM'
p463
(isym
Cmd
p464
(dp465
g11
cforth
NUM
p466
sg2
(lp467
sg4
S'cmd'
p468
sg6
(dp469
sg16
g463
sbsS'SWAP'
p470
(isym
Cmd
p471
(dp472
g11
cforth
SWAP
p473
sg2
(lp474
sg4
S'cmd'
p475
sg6
(dp476
sg16
g470
sbsS'WORDS'
p477
(isym
Cmd
p478
(dp479
g11
cforth
WORDS
p480
sg2
(lp481
sg4
S'cmd'
p482
sg6
(dp483
sg16
g477
sbsS'PRESS'
p484
(isym
Cmd
p485
(dp486
g11
cforth
PRESS
p487
sg2
(lp488
sg4
S'cmd'
p489
sg6
(dp490
sg16
g484
sbsS'TAN'
p491
(isym
Cmd
p492
(dp493
g11
cforth
TAN
p494
sg2
(lp495
sg4
S'cmd'
p496
sg6
(dp497
sg16
g491
sbsS'AXIS'
p498
(isym
Cmd
p499
(dp500
g11
cforth
AXIS
p501
sg2
(lp502
sg4
S'cmd'
p503
sg6
(dp504
sg16
g498
sbsS'STACK'
p505
(isym
Cmd
p506
(dp507
g11
cforth
STACK
p508
sg2
(lp509
sg4
S'cmd'
p510
sg6
(dp511
sg16
g505
sbsS'?'
p512
(isym
Cmd
p513
(dp514
g11
cforth
q
p515
sg2
(lp516
sg4
S'cmd'
p517
sg6
(dp518
sg16
S'q'
p519
sbsS'LOAD'
p520
(isym
Cmd
p521
(dp522
g11
cforth
LOAD
p523
sg2
(lp524
sg4
S'cmd'
p525
sg6
(dp526
sg16
g520
sbsS'@'
p527
(isym
Cmd
p528
(dp529
g11
cforth
pFETCH
p530
sg2
(lp531
sg4
S'cmd'
p532
sg6
(dp533
sg16
S'pFETCH'
p534
sbsS'.LOAD'
p535
(isym
Cmd
p536
(dp537
g11
cforth
pLOAD
p538
sg2
(lp539
sg4
S'cmd'
p540
sg6
(dp541
sg16
S'pLOAD'
p542
sbsS'E'
p543
(isym
Number
p544
(dp545
g2
(lp546
sg4
S'number'
p547
sg6
(dp548
sg16
F2.718281828459045
sbsS'x86'
p549
(isym
Arch
p550
(dp551
g2
(lp552
sg4
S'arch'
p553
sg6
(dp554
sg16
g549
sbsS'FIND'
p555
(isym
Cmd
p556
(dp557
g11
cforth
FIND
p558
sg2
(lp559
sg4
S'cmd'
p560
sg6
(dp561
sg16
g555
sbsS'URL'
p562
(isym
Cmd
p563
(dp564
g11
cforth
URL
p565
sg2
(lp566
sg4
S'cmd'
p567
sg6
(dp568
sg16
g562
sbsS'CPU'
p569
(isym
Cmd
p570
(dp571
g11
cforth
CPU
p572
sg2
(lp573
sg4
S'cmd'
p574
sg6
(dp575
sg16
g569
sbsg417
g418
sS'VM'
p576
(iforth
FORTH
p577
(dp578
g2
(lp579
sg4
S'forth'
p580
sg6
g7
sg16
S'vm'
p581
sbsS'SYNTAX'
p582
(isym
Cmd
p583
(dp584
g11
cforth
SYNTAX
p585
sg2
(lp586
sg4
S'cmd'
p587
sg6
(dp588
sg16
g582
sbsg256
(isym
Cmd
p589
(dp590
g11
g252
sg2
(lp591
sg4
S'cmd'
p592
sg6
(dp593
sg16
g256
sbsS'!'
p594
(isym
Cmd
p595
(dp596
g11
g279
sg2
(lp597
sg4
S'cmd'
p598
sg6
(dp599
sg16
g283
sbsS'plan'
p600
(ipps
Plan
p601
(dp602
g2
(lp603
sg4
S'plan'
p604
sg6
(dp605
sg16
g600
sbsS'.POP'
p606
(isym
Cmd
p607
(dp608
g11
cforth
pPOP
p609
sg2
(lp610
sg4
S'cmd'
p611
sg6
(dp612
sg16
S'pPOP'
p613
sbsS'DUP'
p614
(isym
Cmd
p615
(dp616
g11
cforth
DUP
p617
sg2
(lp618
sg4
S'cmd'
p619
sg6
(dp620
sg16
g614
sbsS'mips'
p621
(isym
Arch
p622
(dp623
g2
(lp624
sg4
S'arch'
p625
sg6
(dp626
sg16
g621
sbsS'BYE'
p627
(isym
Cmd
p628
(dp629
g11
cforth
BYE
p630
sg2
(lp631
sg4
S'cmd'
p632
sg6
(dp633
sg16
g627
sbsS'SLON'
p634
(isym
Cmd
p635
(dp636
g11
cforth
SLON
p637
sg2
(lp638
sg4
S'cmd'
p639
sg6
(dp640
sg16
g634
sbsS'.PUSH'
p641
(isym
Cmd
p642
(dp643
g11
cforth
pPUSH
p644
sg2
(lp645
sg4
S'cmd'
p646
sg6
(dp647
sg16
S'pPUSH'
p648
sbsS'LANG'
p649
(isym
Cmd
p650
(dp651
g11
cforth
LANG
p652
sg2
(lp653
sg4
S'cmd'
p654
sg6
(dp655
sg16
g649
sbsS'//'
p656
(isym
Cmd
p657
(dp658
g11
g644
sg2
(lp659
sg4
S'cmd'
p660
sg6
(dp661
sg16
g648
sbsS'MAP'
p662
(isym
Cmd
p663
(dp664
g11
cforth
MAP
p665
sg2
(lp666
sg4
S'cmd'
p667
sg6
(dp668
sg16
g662
sbsS'PI'
p669
(isym
Number
p670
(dp671
g2
(lp672
sg4
S'number'
p673
sg6
(dp674
sg16
F3.141592653589793
sbsS'.DEL'
p675
(isym
Cmd
p676
(dp677
g11
cforth
pDEL
p678
sg2
(lp679
sg4
S'cmd'
p680
sg6
(dp681
sg16
S'pDEL'
p682
sbsS'INT'
p683
(isym
Cmd
p684
(dp685
g11
cforth
INT
p686
sg2
(lp687
sg4
S'cmd'
p688
sg6
(dp689
sg16
g683
sbsS'.FETCH'
p690
(isym
Cmd
p691
(dp692
g11
g530
sg2
(lp693
sg4
S'cmd'
p694
sg6
(dp695
sg16
g534
sbsg140
g141
sS'FROG'
p696
(isym
Cmd
p697
(dp698
g11
cforth
FROG
p699
sg2
(lp700
sg4
S'cmd'
p701
sg6
(dp702
sg16
g696
sbsS'VECTOR'
p703
(isym
Cmd
p704
(dp705
g11
cforth
VECTOR
p706
sg2
(lp707
sg4
S'cmd'
p708
sg6
(dp709
sg16
g703
sbsS'INHER'
p710
(isym
Cmd
p711
(dp712
g11
cforth
INHER
p713
sg2
(lp714
sg4
S'cmd'
p715
sg6
(dp716
sg16
g710
sbsS'MCU'
p717
(isym
Cmd
p718
(dp719
g11
cforth
MCU
p720
sg2
(lp721
sg4
S'cmd'
p722
sg6
(dp723
sg16
g717
sbsS'SAVE'
p724
(isym
Cmd
p725
(dp726
g11
cforth
SAVE
p727
sg2
(lp728
sg4
S'cmd'
p729
sg6
(dp730
sg16
g724
sbsS'OS'
p731
(isym
Cmd
p732
(dp733
g11
cforth
OS
p734
sg2
(lp735
sg4
S'cmd'
p736
sg6
(dp737
sg16
g731
sbsS'COMPILER'
p738
(isym
Cmd
p739
(dp740
g11
cforth
COMPILER
p741
sg2
(lp742
sg4
S'cmd'
p743
sg6
(dp744
sg16
g738
sbsS'INTERPRET'
p745
(isym
Cmd
p746
(dp747
g11
cforth
INTERPRET
p748
sg2
(lp749
sg4
S'cmd'
p750
sg6
(dp751
sg16
g745
sbsg237
(isym
Cmd
p752
(dp753
g11
g233
sg2
(lp754
sg4
S'cmd'
p755
sg6
(dp756
sg16
g237
sbssg16
S'vm'
p757
sb.