(iforth
FORTH
p0
(dp1
S'nest'
p2
(lp3
sS'type'
p4
S'forth'
p5
sS'attr'
p6
(dp7
S'COS'
p8
(isym
Cmd
p9
(dp10
S'fn'
p11
cforth
COS
p12
sg2
(lp13
sg4
S'cmd'
p14
sg6
(dp15
sS'value'
p16
g8
sbsS'*'
p17
(isym
Cmd
p18
(dp19
g11
cforth
MUL
p20
sg2
(lp21
sg4
S'cmd'
p22
sg6
(dp23
sg16
S'MUL'
p24
sbsS'GROUP'
p25
(isym
Cmd
p26
(dp27
g11
cforth
GROUP
p28
sg2
(lp29
sg4
S'cmd'
p30
sg6
(dp31
sg16
g25
sbsS'SUB'
p32
(isym
Cmd
p33
(dp34
g11
cforth
SUB
p35
sg2
(lp36
sg4
S'cmd'
p37
sg6
(dp38
sg16
g32
sbsS'OVER'
p39
(isym
Cmd
p40
(dp41
g11
cforth
OVER
p42
sg2
(lp43
sg4
S'cmd'
p44
sg6
(dp45
sg16
g39
sbsS'DROPALL'
p46
(isym
Cmd
p47
(dp48
g11
cforth
DROPALL
p49
sg2
(lp50
sg4
S'cmd'
p51
sg6
(dp52
sg16
g46
sbsS'EXECUTE'
p53
(isym
Cmd
p54
(dp55
g11
cforth
EXECUTE
p56
sg2
(lp57
sg4
S'cmd'
p58
sg6
(dp59
sg16
g53
sbsS'arm'
p60
(isym
Arch
p61
(dp62
g2
(lp63
sg4
S'arch'
p64
sg6
(dp65
sg16
g60
sbsS'SQRT'
p66
(isym
Cmd
p67
(dp68
g11
cforth
SQRT
p69
sg2
(lp70
sg4
S'cmd'
p71
sg6
(dp72
sg16
g66
sbsS'WORD'
p73
(isym
Cmd
p74
(dp75
g11
cforth
WORD
p76
sg2
(lp77
sg4
S'cmd'
p78
sg6
(dp79
sg16
g73
sbsS'.SAVE'
p80
(isym
Cmd
p81
(dp82
g11
cforth
pSAVE
p83
sg2
(lp84
sg4
S'cmd'
p85
sg6
(dp86
sg16
S'pSAVE'
p87
sbsg24
(isym
Cmd
p88
(dp89
g11
g20
sg2
(lp90
sg4
S'cmd'
p91
sg6
(dp92
sg16
g24
sbsS'DIV'
p93
(isym
Cmd
p94
(dp95
g11
cforth
DIV
p96
sg2
(lp97
sg4
S'cmd'
p98
sg6
(dp99
sg16
g93
sbsS'.'
p100
(isym
Cmd
p101
(dp102
g11
g49
sg2
(lp103
sg4
S'cmd'
p104
sg6
(dp105
sg16
g46
sbsS'ARCH'
p106
(isym
Cmd
p107
(dp108
g11
cforth
ARCH
p109
sg2
(lp110
sg4
S'cmd'
p111
sg6
(dp112
sg16
g106
sbsS'SIN'
p113
(isym
Cmd
p114
(dp115
g11
cforth
SIN
p116
sg2
(lp117
sg4
S'cmd'
p118
sg6
(dp119
sg16
g113
sbsS'FN'
p120
(isym
Cmd
p121
(dp122
g11
cforth
FN
p123
sg2
(lp124
sg4
S'cmd'
p125
sg6
(dp126
sg16
g120
sbsS'.SLOT'
p127
(isym
Cmd
p128
(dp129
g11
cforth
pSLOT
p130
sg2
(lp131
sg4
S'cmd'
p132
sg6
(dp133
sg16
S'pSLOT'
p134
sbsS'.DROP'
p135
(isym
Cmd
p136
(dp137
g11
cforth
pDROP
p138
sg2
(lp139
sg4
S'cmd'
p140
sg6
(dp141
sg16
S'pDROP'
p142
sbsS'TASK'
p143
(isym
Cmd
p144
(dp145
g11
cforth
TASK
p146
sg2
(lp147
sg4
S'cmd'
p148
sg6
(dp149
sg16
g143
sbsS'%'
p150
(isym
Cmd
p151
(dp152
g11
cforth
MOD
p153
sg2
(lp154
sg4
S'cmd'
p155
sg6
(dp156
sg16
S'MOD'
p157
sbsS'$'
p158
(isym
Cmd
p159
(dp160
g11
g130
sg2
(lp161
sg4
S'cmd'
p162
sg6
(dp163
sg16
g134
sbsS'POW'
p164
(isym
Cmd
p165
(dp166
g11
cforth
POW
p167
sg2
(lp168
sg4
S'cmd'
p169
sg6
(dp170
sg16
g164
sbsS'+'
p171
(isym
Cmd
p172
(dp173
g11
cforth
ADD
p174
sg2
(lp175
sg4
S'cmd'
p176
sg6
(dp177
sg16
S'ADD'
p178
sbsS'DROP'
p179
(isym
Cmd
p180
(dp181
g11
cforth
DROP
p182
sg2
(lp183
sg4
S'cmd'
p184
sg6
(dp185
sg16
g179
sbsS'-'
p186
(isym
Cmd
p187
(dp188
g11
g35
sg2
(lp189
sg4
S'cmd'
p190
sg6
(dp191
sg16
g32
sbsS'/'
p192
(isym
Cmd
p193
(dp194
g11
g96
sg2
(lp195
sg4
S'cmd'
p196
sg6
(dp197
sg16
g93
sbsS'.STORE'
p198
(isym
Cmd
p199
(dp200
g11
cforth
pSTORE
p201
sg2
(lp202
sg4
S'cmd'
p203
sg6
(dp204
sg16
S'pSTORE'
p205
sbsS'STM32'
p206
(isym
Mcu
p207
(dp208
g2
(lp209
sg4
S'mcu'
p210
sg6
(dp211
sg16
g206
sbsS'NUM'
p212
(isym
Cmd
p213
(dp214
g11
cforth
NUM
p215
sg2
(lp216
sg4
S'cmd'
p217
sg6
(dp218
sg16
g212
sbsS'SWAP'
p219
(isym
Cmd
p220
(dp221
g11
cforth
SWAP
p222
sg2
(lp223
sg4
S'cmd'
p224
sg6
(dp225
sg16
g219
sbsS'WORDS'
p226
(isym
Cmd
p227
(dp228
g11
cforth
WORDS
p229
sg2
(lp230
sg4
S'cmd'
p231
sg6
(dp232
sg16
g226
sbsS'PRESS'
p233
(isym
Cmd
p234
(dp235
g11
cforth
PRESS
p236
sg2
(lp237
sg4
S'cmd'
p238
sg6
(dp239
sg16
g233
sbsS'TAN'
p240
(isym
Cmd
p241
(dp242
g11
cforth
TAN
p243
sg2
(lp244
sg4
S'cmd'
p245
sg6
(dp246
sg16
g240
sbsS'AXIS'
p247
(isym
Cmd
p248
(dp249
g11
cforth
AXIS
p250
sg2
(lp251
sg4
S'cmd'
p252
sg6
(dp253
sg16
g247
sbsS'STACK'
p254
(isym
Cmd
p255
(dp256
g11
cforth
STACK
p257
sg2
(lp258
sg4
S'cmd'
p259
sg6
(dp260
sg16
g254
sbsS'?'
p261
(isym
Cmd
p262
(dp263
g11
cforth
q
p264
sg2
(lp265
sg4
S'cmd'
p266
sg6
(dp267
sg16
S'q'
p268
sbsS'LOAD'
p269
(isym
Cmd
p270
(dp271
g11
cforth
LOAD
p272
sg2
(lp273
sg4
S'cmd'
p274
sg6
(dp275
sg16
g269
sbsS'@'
p276
(isym
Cmd
p277
(dp278
g11
cforth
pFETCH
p279
sg2
(lp280
sg4
S'cmd'
p281
sg6
(dp282
sg16
S'pFETCH'
p283
sbsS'.LOAD'
p284
(isym
Cmd
p285
(dp286
g11
cforth
pLOAD
p287
sg2
(lp288
sg4
S'cmd'
p289
sg6
(dp290
sg16
S'pLOAD'
p291
sbsS'E'
p292
(isym
Number
p293
(dp294
g2
(lp295
sg4
S'number'
p296
sg6
(dp297
sg16
F2.718281828459045
sbsS'x86'
p298
(isym
Arch
p299
(dp300
g2
(lp301
sg4
S'arch'
p302
sg6
(dp303
sg16
g298
sbsS'FIND'
p304
(isym
Cmd
p305
(dp306
g11
cforth
FIND
p307
sg2
(lp308
sg4
S'cmd'
p309
sg6
(dp310
sg16
g304
sbsS'URL'
p311
(isym
Cmd
p312
(dp313
g11
cforth
URL
p314
sg2
(lp315
sg4
S'cmd'
p316
sg6
(dp317
sg16
g311
sbsS'CPU'
p318
(isym
Cmd
p319
(dp320
g11
cforth
CPU
p321
sg2
(lp322
sg4
S'cmd'
p323
sg6
(dp324
sg16
g318
sbsS'.PUSH'
p325
(isym
Cmd
p326
(dp327
g11
cforth
pPUSH
p328
sg2
(lp329
sg4
S'cmd'
p330
sg6
(dp331
sg16
S'pPUSH'
p332
sbsS'VM'
p333
(iforth
FORTH
p334
(dp335
g2
(lp336
sg4
S'forth'
p337
sg6
g7
sg16
S'vm'
p338
sbsg178
(isym
Cmd
p339
(dp340
g11
g174
sg2
(lp341
sg4
S'cmd'
p342
sg6
(dp343
sg16
g178
sbsS'!'
p344
(isym
Cmd
p345
(dp346
g11
g201
sg2
(lp347
sg4
S'cmd'
p348
sg6
(dp349
sg16
g205
sbsS'plan'
p350
(ipps
Plan
p351
(dp352
g2
(lp353
sg4
S'plan'
p354
sg6
(dp355
sg16
g350
sbsS'.POP'
p356
(isym
Cmd
p357
(dp358
g11
cforth
pPOP
p359
sg2
(lp360
sg4
S'cmd'
p361
sg6
(dp362
sg16
S'pPOP'
p363
sbsS'DUP'
p364
(isym
Cmd
p365
(dp366
g11
cforth
DUP
p367
sg2
(lp368
sg4
S'cmd'
p369
sg6
(dp370
sg16
g364
sbsS'mips'
p371
(isym
Arch
p372
(dp373
g2
(lp374
sg4
S'arch'
p375
sg6
(dp376
sg16
g371
sbsS'BYE'
p377
(isym
Cmd
p378
(dp379
g11
cforth
BYE
p380
sg2
(lp381
sg4
S'cmd'
p382
sg6
(dp383
sg16
g377
sbsS'SLON'
p384
(isym
Cmd
p385
(dp386
g11
cforth
SLON
p387
sg2
(lp388
sg4
S'cmd'
p389
sg6
(dp390
sg16
g384
sbsS'^'
p391
(isym
Cmd
p392
(dp393
g11
g167
sg2
(lp394
sg4
S'cmd'
p395
sg6
(dp396
sg16
g164
sbsS'//'
p397
(isym
Cmd
p398
(dp399
g11
g328
sg2
(lp400
sg4
S'cmd'
p401
sg6
(dp402
sg16
g332
sbsS'MAP'
p403
(isym
Cmd
p404
(dp405
g11
cforth
MAP
p406
sg2
(lp407
sg4
S'cmd'
p408
sg6
(dp409
sg16
g403
sbsS'PI'
p410
(isym
Number
p411
(dp412
g2
(lp413
sg4
S'number'
p414
sg6
(dp415
sg16
F3.141592653589793
sbsS'.DEL'
p416
(isym
Cmd
p417
(dp418
g11
cforth
pDEL
p419
sg2
(lp420
sg4
S'cmd'
p421
sg6
(dp422
sg16
S'pDEL'
p423
sbsS'INT'
p424
(isym
Cmd
p425
(dp426
g11
cforth
INT
p427
sg2
(lp428
sg4
S'cmd'
p429
sg6
(dp430
sg16
g424
sbsS'.FETCH'
p431
(isym
Cmd
p432
(dp433
g11
g279
sg2
(lp434
sg4
S'cmd'
p435
sg6
(dp436
sg16
g283
sbsVRTOS
p437
(isym
Os
p438
(dp439
g2
(lp440
(isym
Os
p441
(dp442
g2
(lp443
sg4
S'os'
p444
sg6
(dp445
Vsuper
p446
(isym
Os
p447
(dp448
g2
g440
sg4
S'os'
p449
sg6
(dp450
sg16
VRTOS
p451
sbssg16
VFreeRTOS
p452
sbasg4
S'os'
p453
sg6
(dp454
Vqueue
p455
(isym
Symbol
p456
(dp457
g2
(lp458
sg4
S'symbol'
p459
sg6
(dp460
sg16
g455
sbsVtask
p461
(isym
String
p462
(dp463
g2
(lp464
sg4
S'string'
p465
sg6
(dp466
Vstate
p467
(isym
Symbol
p468
(dp469
g2
(lp470
sg4
S'symbol'
p471
sg6
(dp472
VREADY
p473
(isym
Symbol
p474
(dp475
g2
(lp476
sg4
S'symbol'
p477
sg6
(dp478
sg16
g473
sbsVIDLE
p479
(isym
Symbol
p480
(dp481
g2
(lp482
sg4
S'symbol'
p483
sg6
(dp484
sg16
VIDLE
p485
sbsVSUSPEND
p486
(isym
Symbol
p487
(dp488
g2
(lp489
sg4
S'symbol'
p490
sg6
(dp491
sg16
g486
sbsVRUN
p492
(isym
Symbol
p493
(dp494
g2
(lp495
sg4
S'symbol'
p496
sg6
(dp497
sg16
g492
sbsVWAIT
p498
(isym
Symbol
p499
(dp500
g2
(lp501
sg4
S'symbol'
p502
sg6
(dp503
sg16
g498
sbssg16
g467
sbssg16
g461
sbsVdoc
p504
(isym
Url
p505
(dp506
g2
(lp507
sg4
S'url'
p508
sg6
(dp509
sg16
Vhttp://easyelectronics.ru/freertos_manual.html
p510
sbsVtimer
p511
(isym
Symbol
p512
(dp513
g2
(lp514
sg4
S'symbol'
p515
sg6
(dp516
sg16
g511
sbsVsheduler
p517
(isym
Symbol
p518
(dp519
g2
(lp520
sg4
S'symbol'
p521
sg6
(dp522
Vpreemptive
p523
(isym
Symbol
p524
(dp525
g2
(lp526
sg4
S'symbol'
p527
sg6
(dp528
sg16
g523
sbsVcooperative
p529
(isym
Symbol
p530
(dp531
g2
(lp532
sg4
S'symbol'
p533
sg6
(dp534
sg16
g529
sbssg16
Vsheduler
p535
sbsVmutex
p536
(isym
Symbol
p537
(dp538
g2
(lp539
sg4
S'symbol'
p540
sg6
(dp541
sg16
g536
sbsVtimeout
p542
(isym
Symbol
p543
(dp544
g2
(lp545
sg4
S'symbol'
p546
sg6
(dp547
sg16
g542
sbsVsemaphore
p548
(isym
Symbol
p549
(dp550
g2
(lp551
sg4
S'symbol'
p552
sg6
(dp553
sg16
g548
sbssg16
g437
sbsS'FROG'
p554
(isym
Cmd
p555
(dp556
g11
cforth
FROG
p557
sg2
(lp558
sg4
S'cmd'
p559
sg6
(dp560
sg16
g554
sbsS'VECTOR'
p561
(isym
Cmd
p562
(dp563
g11
cforth
VECTOR
p564
sg2
(lp565
sg4
S'cmd'
p566
sg6
(dp567
sg16
g561
sbsS'INHER'
p568
(isym
Cmd
p569
(dp570
g11
cforth
INHER
p571
sg2
(lp572
sg4
S'cmd'
p573
sg6
(dp574
sg16
g568
sbsS'MCU'
p575
(isym
Cmd
p576
(dp577
g11
cforth
MCU
p578
sg2
(lp579
sg4
S'cmd'
p580
sg6
(dp581
sg16
g575
sbsS'SAVE'
p582
(isym
Cmd
p583
(dp584
g11
cforth
SAVE
p585
sg2
(lp586
sg4
S'cmd'
p587
sg6
(dp588
sg16
g582
sbsS'OS'
p589
(isym
Cmd
p590
(dp591
g11
cforth
OS
p592
sg2
(lp593
sg4
S'cmd'
p594
sg6
(dp595
sg16
g589
sbsS'INTERPRET'
p596
(isym
Cmd
p597
(dp598
g11
cforth
INTERPRET
p599
sg2
(lp600
sg4
S'cmd'
p601
sg6
(dp602
sg16
g596
sbsg157
(isym
Cmd
p603
(dp604
g11
g153
sg2
(lp605
sg4
S'cmd'
p606
sg6
(dp607
sg16
g157
sbssg16
S'vm'
p608
sb.