(iforth
FORTH
p0
(dp1
S'nest'
p2
(lp3
sS'type'
p4
S'forth'
p5
sS'attr'
p6
(dp7
S'COS'
p8
(isym
Cmd
p9
(dp10
S'fn'
p11
cforth
COS
p12
sg2
(lp13
sg4
S'cmd'
p14
sg6
(dp15
sS'value'
p16
g8
sbsS'*'
p17
(isym
Cmd
p18
(dp19
g11
cforth
MUL
p20
sg2
(lp21
sg4
S'cmd'
p22
sg6
(dp23
sg16
S'MUL'
p24
sbsS'GROUP'
p25
(isym
Cmd
p26
(dp27
g11
cforth
GROUP
p28
sg2
(lp29
sg4
S'cmd'
p30
sg6
(dp31
sg16
g25
sbsS'SUB'
p32
(isym
Cmd
p33
(dp34
g11
cforth
SUB
p35
sg2
(lp36
sg4
S'cmd'
p37
sg6
(dp38
sg16
g32
sbsVicb
p39
(isym
Group
p40
(dp41
g2
(lp42
sg4
S'group'
p43
sg6
(dp44
sg16
g39
sbsS'OVER'
p45
(isym
Cmd
p46
(dp47
g11
cforth
OVER
p48
sg2
(lp49
sg4
S'cmd'
p50
sg6
(dp51
sg16
g45
sbsVIoT
p52
(isym
Group
p53
(dp54
g2
(lp55
sg4
S'group'
p56
sg6
(dp57
VLora
p58
(isym
Group
p59
(dp60
g2
(lp61
sg4
S'group'
p62
sg6
(dp63
sg16
g58
sbssg16
g52
sbsS'EXECUTE'
p64
(isym
Cmd
p65
(dp66
g11
cforth
EXECUTE
p67
sg2
(lp68
sg4
S'cmd'
p69
sg6
(dp70
sg16
g64
sbsS'MOD'
p71
(isym
Cmd
p72
(dp73
g11
cforth
MOD
p74
sg2
(lp75
sg4
S'cmd'
p76
sg6
(dp77
sg16
g71
sbsS'arm'
p78
(isym
Arch
p79
(dp80
g2
(lp81
sg4
S'arch'
p82
sg6
(dp83
sg16
g78
sbsS'^'
p84
(isym
Cmd
p85
(dp86
g11
cforth
POW
p87
sg2
(lp88
sg4
S'cmd'
p89
sg6
(dp90
sg16
S'POW'
p91
sbsVMETA
p92
(isym
Group
p93
(dp94
g2
(lp95
sg4
S'group'
p96
sg6
(dp97
Vweb
p98
(isym
Group
p99
(dp100
g2
(lp101
sg4
S'group'
p102
sg6
(dp103
VJSON
p104
(isym
Lang
p105
(dp106
g2
(lp107
sg4
S'lang'
p108
sg6
(dp109
sg16
g104
sbsVHTML
p110
(isym
Lang
p111
(dp112
g2
(lp113
sg4
S'lang'
p114
sg6
(dp115
sg16
g110
sbsVCSS
p116
(isym
Lang
p117
(dp118
g2
(lp119
sg4
S'lang'
p120
sg6
(dp121
sg16
g116
sbsVJS
p122
(isym
Lang
p123
(dp124
g2
(lp125
sg4
S'lang'
p126
sg6
(dp127
sg16
g122
sbssg16
g98
sbsVLLVM
p128
(isym
Compiler
p129
(dp130
g2
(lp131
sg4
S'compiler'
p132
sg6
(dp133
sg16
g128
sbsVPython
p134
(isym
Lang
p135
(dp136
g2
(lp137
sg4
S'lang'
p138
sg6
(dp139
sg16
g134
sbsVC89
p140
(isym
Lang
p141
(dp142
g2
(lp143
sg4
S'lang'
p144
sg6
(dp145
VCpp
p146
(isym
Lang
p147
(dp148
g2
(lp149
sg4
S'lang'
p150
sg6
(dp151
sg16
g146
sbssg16
g140
sbsVGo
p152
(isym
Lang
p153
(dp154
g2
(lp155
sg4
S'lang'
p156
sg6
(dp157
sg16
g152
sbsVFORTH
p158
(isym
Lang
p159
(dp160
g2
(lp161
sg4
S'lang'
p162
sg6
(dp163
Vdoc
p164
(isym
Group
p165
(dp166
g2
(lp167
(isym
Url
p168
(dp169
g2
(lp170
sg4
S'url'
p171
sg6
(dp172
sg16
Vhttp://www.forth200x.org/
p173
sbasg4
S'group'
p174
sg6
(dp175
VDPANS94
p176
(isym
Url
p177
(dp178
g2
(lp179
sg4
S'url'
p180
sg6
(dp181
sg16
Vhttp://lars.nocrew.org/dpans/dpans.htm
p182
sbsVhttp://gforth.org
p183
(isym
Symbol
p184
(dp185
g2
(lp186
sg4
S'symbol'
p187
sg6
(dp188
Vurl
p189
(isym
Url
p190
(dp191
g2
(lp192
sg4
S'url'
p193
sg6
(dp194
sg16
Vhttp://gforth.org
p195
sbsVdoc
p196
(isym
String
p197
(dp198
g2
(lp199
sg4
S'string'
p200
sg6
(dp201
sg16
VA free, fast, featureful and portable GNU implementation of the Forth 2012 language
p202
sbssg16
Vgforth
p203
sbsVISO
p204
(isym
String
p205
(dp206
g2
(lp207
sg4
S'string'
p208
sg6
(dp209
sg16
VISO/IEC 15145:1997 Information technology. Programming languages. FORTH
p210
sbssg16
g164
sbsg203
g184
sVcross
p211
(isym
Group
p212
(dp213
g2
(lp214
(isym
Url
p215
(dp216
g2
(lp217
sg4
S'url'
p218
sg6
(dp219
sg16
Vhttp://www.forth.com/downloads/ANS/XCpaper.pdf
p220
sba(isym
Url
p221
(dp222
g2
(lp223
sg4
S'url'
p224
sg6
(dp225
sg16
Vhttp://www.forth.com/downloads/ANS/XCapp5.pdf
p226
sba(isym
Url
p227
(dp228
g2
(lp229
sg4
S'url'
p230
sg6
(dp231
sg16
Vhttps://groups.google.com/forum/#!topic/comp.lang.forth/eYiPcW8uPRY
p232
sbasg4
S'group'
p233
sg6
(dp234
sg16
g211
sbsVpeople
p235
(isym
Group
p236
(dp237
g2
(lp238
sg4
S'group'
p239
sg6
(dp240
VDr.Cactus
p241
(isym
Symbol
p242
(dp243
g2
(lp244
(isym
Url
p245
(dp246
g2
(lp247
sg4
S'url'
p248
sg6
(dp249
sg16
Vhttp://www.forth.org.ru/~cactus/
p250
sbasg4
S'symbol'
p251
sg6
(dp252
Vemail
p253
(isym
String
p254
(dp255
g2
(lp256
sg4
S'string'
p257
sg6
(dp258
sg16
Vcactus@forth.org.ru
p259
sbssg16
g241
sbsVElizabethRather
p260
(isym
String
p261
(dp262
g2
(lp263
sg4
S'string'
p264
sg6
(dp265
sg16
VElizabeth D. Rather
p266
sbssg16
g235
sbssg16
g158
sbssg16
g92
sbsS'SQRT'
p267
(isym
Cmd
p268
(dp269
g11
cforth
SQRT
p270
sg2
(lp271
sg4
S'cmd'
p272
sg6
(dp273
sg16
g267
sbsS'.SAVE'
p274
(isym
Cmd
p275
(dp276
g11
cforth
pSAVE
p277
sg2
(lp278
sg4
S'cmd'
p279
sg6
(dp280
sg16
S'pSAVE'
p281
sbsg24
(isym
Cmd
p282
(dp283
g11
g20
sg2
(lp284
sg4
S'cmd'
p285
sg6
(dp286
sg16
g24
sbsS'DIV'
p287
(isym
Cmd
p288
(dp289
g11
cforth
DIV
p290
sg2
(lp291
sg4
S'cmd'
p292
sg6
(dp293
sg16
g287
sbsS'.'
p294
(isym
Cmd
p295
(dp296
g11
cforth
DROPALL
p297
sg2
(lp298
sg4
S'cmd'
p299
sg6
(dp300
sg16
S'DROPALL'
p301
sbsS'ARCH'
p302
(isym
Cmd
p303
(dp304
g11
cforth
ARCH
p305
sg2
(lp306
sg4
S'cmd'
p307
sg6
(dp308
sg16
g302
sbsS'SIN'
p309
(isym
Cmd
p310
(dp311
g11
cforth
SIN
p312
sg2
(lp313
sg4
S'cmd'
p314
sg6
(dp315
sg16
g309
sbsS'FN'
p316
(isym
Cmd
p317
(dp318
g11
cforth
FN
p319
sg2
(lp320
sg4
S'cmd'
p321
sg6
(dp322
sg16
g316
sbsS'.SLOT'
p323
(isym
Cmd
p324
(dp325
g11
cforth
pSLOT
p326
sg2
(lp327
sg4
S'cmd'
p328
sg6
(dp329
sg16
S'pSLOT'
p330
sbsS'.DROP'
p331
(isym
Cmd
p332
(dp333
g11
cforth
pDROP
p334
sg2
(lp335
sg4
S'cmd'
p336
sg6
(dp337
sg16
S'pDROP'
p338
sbsS'TASK'
p339
(isym
Cmd
p340
(dp341
g11
cforth
TASK
p342
sg2
(lp343
sg4
S'cmd'
p344
sg6
(dp345
sg16
g339
sbsS'WORD'
p346
(isym
Cmd
p347
(dp348
g11
cforth
WORD
p349
sg2
(lp350
sg4
S'cmd'
p351
sg6
(dp352
sg16
g346
sbsS'$'
p353
(isym
Cmd
p354
(dp355
g11
g326
sg2
(lp356
sg4
S'cmd'
p357
sg6
(dp358
sg16
g330
sbsg91
(isym
Cmd
p359
(dp360
g11
g87
sg2
(lp361
sg4
S'cmd'
p362
sg6
(dp363
sg16
g91
sbsS'+'
p364
(isym
Cmd
p365
(dp366
g11
cforth
ADD
p367
sg2
(lp368
sg4
S'cmd'
p369
sg6
(dp370
sg16
S'ADD'
p371
sbsS'DROP'
p372
(isym
Cmd
p373
(dp374
g11
cforth
DROP
p375
sg2
(lp376
sg4
S'cmd'
p377
sg6
(dp378
sg16
g372
sbsS'-'
p379
(isym
Cmd
p380
(dp381
g11
g35
sg2
(lp382
sg4
S'cmd'
p383
sg6
(dp384
sg16
g32
sbsS'/'
p385
(isym
Cmd
p386
(dp387
g11
g290
sg2
(lp388
sg4
S'cmd'
p389
sg6
(dp390
sg16
g287
sbsS'.STORE'
p391
(isym
Cmd
p392
(dp393
g11
cforth
pSTORE
p394
sg2
(lp395
sg4
S'cmd'
p396
sg6
(dp397
sg16
S'pSTORE'
p398
sbsS'STM32'
p399
(isym
Mcu
p400
(dp401
g2
(lp402
sg4
S'mcu'
p403
sg6
(dp404
Vuart
p405
(isym
Group
p406
(dp407
g2
(lp408
sg4
S'group'
p409
sg6
(dp410
VMX_USART2_UART_Init
p411
(isym
Fn
p412
(dp413
g2
(lp414
sg4
S'fn'
p415
sg6
(dp416
sg16
g411
sbsVMX_USART1_UART_Init
p417
(isym
Fn
p418
(dp419
g2
(lp420
sg4
S'fn'
p421
sg6
(dp422
sg16
g417
sbsVMX_USART3_UART_Init
p423
(isym
Fn
p424
(dp425
g2
(lp426
sg4
S'fn'
p427
sg6
(dp428
sg16
g423
sbssg16
g405
sbsVSTM32F0
p429
(isym
Mcu
p430
(dp431
g2
(lp432
sg4
S'mcu'
p433
sg6
(dp434
sg16
g429
sbsVSTM32L0
p435
(isym
Mcu
p436
(dp437
g2
(lp438
sg4
S'mcu'
p439
sg6
(dp440
sg16
g435
sbsVinit
p441
(isym
Symbol
p442
(dp443
g2
(lp444
sg4
S'symbol'
p445
sg6
(dp446
VMX_TIM4_Init
p447
(isym
Fn
p448
(dp449
g2
(lp450
sg4
S'fn'
p451
sg6
(dp452
sg16
g447
sbsVHAL_Init
p453
(isym
Fn
p454
(dp455
g2
(lp456
sg4
S'fn'
p457
sg6
(dp458
sg16
g453
sbsg417
g418
sVMX_RTC_Init
p459
(isym
Fn
p460
(dp461
g2
(lp462
sg4
S'fn'
p463
sg6
(dp464
sg16
g459
sbsg423
g424
sVSystemClock_Config
p465
(isym
Fn
p466
(dp467
g2
(lp468
sg4
S'fn'
p469
sg6
(dp470
sg16
g465
sbsVMX_IWDG_Init
p471
(isym
Fn
p472
(dp473
g2
(lp474
sg4
S'fn'
p475
sg6
(dp476
sg16
g471
sbsVMX_GPIO_Init
p477
(isym
Fn
p478
(dp479
g2
(lp480
sg4
S'fn'
p481
sg6
(dp482
sg16
g477
sbsg411
g412
sVmain
p483
(isym
Fn
p484
(dp485
g2
(lp486
sg4
S'fn'
p487
sg6
(dp488
sg16
g483
sbsVMX_ADC1_Init
p489
(isym
Fn
p490
(dp491
g2
(lp492
sg4
S'fn'
p493
sg6
(dp494
sg16
g489
sbssg16
g441
sbsVadc
p495
(isym
Group
p496
(dp497
g2
(lp498
sg4
S'group'
p499
sg6
(dp500
g489
g490
ssg16
g495
sbsVSTM32F4
p501
(isym
Mcu
p502
(dp503
g2
(lp504
sg4
S'mcu'
p505
sg6
(dp506
sg16
g501
sbsVgpio
p507
(isym
Group
p508
(dp509
g2
(lp510
sg4
S'group'
p511
sg6
(dp512
sg16
g507
sbsVarch
p513
(isym
Arch
p514
(dp515
g2
(lp516
sg4
S'arch'
p517
sg6
(dp518
sg16
S'arm'
p519
sbsVSTM32F1
p520
(isym
Mcu
p521
(dp522
g2
(lp523
sg4
S'mcu'
p524
sg6
(dp525
VSTM32F103
p526
(isym
Mcu
p527
(dp528
g2
(lp529
sg4
S'mcu'
p530
sg6
(dp531
VSTM32F103CBTx
p532
(isym
Mcu
p533
(dp534
g2
(lp535
sg4
S'mcu'
p536
sg6
(dp537
Vsuper
p538
g527
sVRAM
p539
(isym
Integer
p540
(dp541
g2
(lp542
sg4
S'integer'
p543
sg6
(dp544
Vunit
p545
(isym
Symbol
p546
(dp547
g2
(lp548
sg4
S'symbol'
p549
sg6
(dp550
sg16
VKb
p551
sbssg16
I20
sbsVFLASH
p552
(isym
Integer
p553
(dp554
g2
(lp555
sg4
S'integer'
p556
sg6
(dp557
Vunit
p558
(isym
Symbol
p559
(dp560
g2
(lp561
sg4
S'symbol'
p562
sg6
(dp563
sg16
VKb
p564
sbssg16
I128
sbssg16
g532
sbsVsuper
p565
g521
ssg16
g526
sbsVsuper
p566
(isym
Mcu
p567
(dp568
g2
(lp569
sg4
S'mcu'
p570
sg6
g404
sg16
S'STM32'
p571
sbssg16
g520
sbsVdsp
p572
(isym
Group
p573
(dp574
g2
(lp575
sg4
S'group'
p576
sg6
(dp577
g495
g496
ssg16
g572
sbssg16
g399
sbsS'NUM'
p578
(isym
Cmd
p579
(dp580
g11
cforth
NUM
p581
sg2
(lp582
sg4
S'cmd'
p583
sg6
(dp584
sg16
g578
sbsS'SWAP'
p585
(isym
Cmd
p586
(dp587
g11
cforth
SWAP
p588
sg2
(lp589
sg4
S'cmd'
p590
sg6
(dp591
sg16
g585
sbsS'WORDS'
p592
(isym
Cmd
p593
(dp594
g11
cforth
WORDS
p595
sg2
(lp596
sg4
S'cmd'
p597
sg6
(dp598
sg16
g592
sbsS'PRESS'
p599
(isym
Cmd
p600
(dp601
g11
cforth
PRESS
p602
sg2
(lp603
sg4
S'cmd'
p604
sg6
(dp605
sg16
g599
sbsS'.FETCH'
p606
(isym
Cmd
p607
(dp608
g11
cforth
pFETCH
p609
sg2
(lp610
sg4
S'cmd'
p611
sg6
(dp612
sg16
S'pFETCH'
p613
sbsS'SLON'
p614
(isym
Cmd
p615
(dp616
g11
cforth
SLON
p617
sg2
(lp618
sg4
S'cmd'
p619
sg6
(dp620
sg16
g614
sbsS'COMPILER'
p621
(isym
Cmd
p622
(dp623
g11
cforth
COMPILER
p624
sg2
(lp625
sg4
S'cmd'
p626
sg6
(dp627
sg16
g621
sbsS'STACK'
p628
(isym
Cmd
p629
(dp630
g11
cforth
STACK
p631
sg2
(lp632
sg4
S'cmd'
p633
sg6
(dp634
sg16
g628
sbsS'?'
p635
(isym
Cmd
p636
(dp637
g11
cforth
q
p638
sg2
(lp639
sg4
S'cmd'
p640
sg6
(dp641
sg16
S'q'
p642
sbsS'LOAD'
p643
(isym
Cmd
p644
(dp645
g11
cforth
LOAD
p646
sg2
(lp647
sg4
S'cmd'
p648
sg6
(dp649
sg16
g643
sbsS'@'
p650
(isym
Cmd
p651
(dp652
g11
g609
sg2
(lp653
sg4
S'cmd'
p654
sg6
(dp655
sg16
g613
sbsS'.LOAD'
p656
(isym
Cmd
p657
(dp658
g11
cforth
pLOAD
p659
sg2
(lp660
sg4
S'cmd'
p661
sg6
(dp662
sg16
S'pLOAD'
p663
sbsS'E'
p664
(isym
Number
p665
(dp666
g2
(lp667
sg4
S'number'
p668
sg6
(dp669
sg16
F2.718281828459045
sbsS'x86'
p670
(isym
Arch
p671
(dp672
g2
(lp673
sg4
S'arch'
p674
sg6
(dp675
sg16
g670
sbsS'URL'
p676
(isym
Cmd
p677
(dp678
g11
cforth
URL
p679
sg2
(lp680
sg4
S'cmd'
p681
sg6
(dp682
sg16
g676
sbsS'CPU'
p683
(isym
Cmd
p684
(dp685
g11
cforth
CPU
p686
sg2
(lp687
sg4
S'cmd'
p688
sg6
(dp689
sg16
g683
sbsg532
g533
sS'VM'
p690
(iforth
FORTH
p691
(dp692
g2
(lp693
sg4
S'forth'
p694
sg6
g7
sg16
S'vm'
p695
sbsS'SYNTAX'
p696
(isym
Cmd
p697
(dp698
g11
cforth
SYNTAX
p699
sg2
(lp700
sg4
S'cmd'
p701
sg6
(dp702
sg16
g696
sbsg371
(isym
Cmd
p703
(dp704
g11
g367
sg2
(lp705
sg4
S'cmd'
p706
sg6
(dp707
sg16
g371
sbsS'!'
p708
(isym
Cmd
p709
(dp710
g11
g394
sg2
(lp711
sg4
S'cmd'
p712
sg6
(dp713
sg16
g398
sbsS'AXIS'
p714
(isym
Cmd
p715
(dp716
g11
cforth
AXIS
p717
sg2
(lp718
sg4
S'cmd'
p719
sg6
(dp720
sg16
g714
sbsS'.POP'
p721
(isym
Cmd
p722
(dp723
g11
cforth
pPOP
p724
sg2
(lp725
sg4
S'cmd'
p726
sg6
(dp727
sg16
S'pPOP'
p728
sbsS'DUP'
p729
(isym
Cmd
p730
(dp731
g11
cforth
DUP
p732
sg2
(lp733
sg4
S'cmd'
p734
sg6
(dp735
sg16
g729
sbsS'mips'
p736
(isym
Arch
p737
(dp738
g2
(lp739
sg4
S'arch'
p740
sg6
(dp741
sg16
g736
sbsS'BYE'
p742
(isym
Cmd
p743
(dp744
g11
cforth
BYE
p745
sg2
(lp746
sg4
S'cmd'
p747
sg6
(dp748
sg16
g742
sbsS'TAN'
p749
(isym
Cmd
p750
(dp751
g11
cforth
TAN
p752
sg2
(lp753
sg4
S'cmd'
p754
sg6
(dp755
sg16
g749
sbsS'.PUSH'
p756
(isym
Cmd
p757
(dp758
g11
cforth
pPUSH
p759
sg2
(lp760
sg4
S'cmd'
p761
sg6
(dp762
sg16
S'pPUSH'
p763
sbsS'LANG'
p764
(isym
Cmd
p765
(dp766
g11
cforth
LANG
p767
sg2
(lp768
sg4
S'cmd'
p769
sg6
(dp770
sg16
g764
sbsS'FIND'
p771
(isym
Cmd
p772
(dp773
g11
cforth
FIND
p774
sg2
(lp775
sg4
S'cmd'
p776
sg6
(dp777
sg16
g771
sbsS'MAP'
p778
(isym
Cmd
p779
(dp780
g11
cforth
MAP
p781
sg2
(lp782
sg4
S'cmd'
p783
sg6
(dp784
sg16
g778
sbsS'PI'
p785
(isym
Number
p786
(dp787
g2
(lp788
sg4
S'number'
p789
sg6
(dp790
sg16
F3.141592653589793
sbsS'.DEL'
p791
(isym
Cmd
p792
(dp793
g11
cforth
pDEL
p794
sg2
(lp795
sg4
S'cmd'
p796
sg6
(dp797
sg16
S'pDEL'
p798
sbsS'%'
p799
(isym
Cmd
p800
(dp801
g11
g74
sg2
(lp802
sg4
S'cmd'
p803
sg6
(dp804
sg16
g71
sbsS'INT'
p805
(isym
Cmd
p806
(dp807
g11
cforth
INT
p808
sg2
(lp809
sg4
S'cmd'
p810
sg6
(dp811
sg16
g805
sbsS'//'
p812
(isym
Cmd
p813
(dp814
g11
g759
sg2
(lp815
sg4
S'cmd'
p816
sg6
(dp817
sg16
g763
sbsg158
g159
sS'FROG'
p818
(isym
Cmd
p819
(dp820
g11
cforth
FROG
p821
sg2
(lp822
sg4
S'cmd'
p823
sg6
(dp824
sg16
g818
sbsg301
(isym
Cmd
p825
(dp826
g11
g297
sg2
(lp827
sg4
S'cmd'
p828
sg6
(dp829
sg16
g301
sbsS'INTERPRET'
p830
(isym
Cmd
p831
(dp832
g11
cforth
INTERPRET
p833
sg2
(lp834
sg4
S'cmd'
p835
sg6
(dp836
sg16
g830
sbsS'INHER'
p837
(isym
Cmd
p838
(dp839
g11
cforth
INHER
p840
sg2
(lp841
sg4
S'cmd'
p842
sg6
(dp843
sg16
g837
sbsS'MCU'
p844
(isym
Cmd
p845
(dp846
g11
cforth
MCU
p847
sg2
(lp848
sg4
S'cmd'
p849
sg6
(dp850
sg16
g844
sbsS'SAVE'
p851
(isym
Cmd
p852
(dp853
g11
cforth
SAVE
p854
sg2
(lp855
sg4
S'cmd'
p856
sg6
(dp857
sg16
g851
sbsS'OS'
p858
(isym
Cmd
p859
(dp860
g11
cforth
OS
p861
sg2
(lp862
sg4
S'cmd'
p863
sg6
(dp864
sg16
g858
sbsVbook
p865
(isym
Group
p866
(dp867
g2
(lp868
sg4
S'group'
p869
sg6
(dp870
Vforth
p871
(isym
Group
p872
(dp873
g2
(lp874
sg4
S'group'
p875
sg6
(dp876
Vthinking
p877
(isym
String
p878
(dp879
g2
(lp880
sg4
S'string'
p881
sg6
(dp882
Vurl
p883
(isym
Url
p884
(dp885
g2
(lp886
sg4
S'url'
p887
sg6
(dp888
sg16
Vhttp://thinking-forth.sourceforge.net/
p889
sbsVtitle
p890
(isym
String
p891
(dp892
g2
(lp893
sg4
S'string'
p894
sg6
(dp895
sg16
VThinking FORTH: A Language and Philosophy for Solving Problems
p896
sbssg16
VThinking Forth
p897
sbsVstarting
p898
(isym
String
p899
(dp900
g2
(lp901
sg4
S'string'
p902
sg6
(dp903
Vurl
p904
(isym
Url
p905
(dp906
g2
(lp907
sg4
S'url'
p908
sg6
(dp909
sg16
Vhttps://www.forth.com/starting-forth/
p910
sbsVpdf
p911
(isym
Url
p912
(dp913
g2
(lp914
sg4
S'url'
p915
sg6
(dp916
sg16
Vhttps://1scyem2bunjw1ghzsf1cjwwn-wpengine.netdna-ssl.com/wp-content/uploads/2018/01/Starting-FORTH.pdf
p917
sbssg16
VStarting FORTH
p918
sbsVdpans
p919
(isym
Url
p920
(dp921
g2
(lp922
sg4
S'url'
p923
sg6
(dp924
sg16
Vhttp://lars.nocrew.org/dpans/dpans.htm
p925
sbssg16
g871
sbssg16
g865
sbsS'VECTOR'
p926
(isym
Cmd
p927
(dp928
g11
cforth
VECTOR
p929
sg2
(lp930
sg4
S'cmd'
p931
sg6
(dp932
sg16
g926
sbsS'plan'
p933
(ipps
Plan
p934
(dp935
g2
(lp936
sg4
S'plan'
p937
sg6
(dp938
sg16
g933
sbssg16
S'vm'
p939
sb.