(iforth
FORTH
p0
(dp1
S'nest'
p2
(lp3
sS'type'
p4
S'forth'
p5
sS'attr'
p6
(dp7
S'OS'
p8
(isym
Cmd
p9
(dp10
S'fn'
p11
cforth
OS
p12
sg2
(lp13
sg4
S'cmd'
p14
sg6
(dp15
sS'value'
p16
g8
sbsS'COS'
p17
(isym
Cmd
p18
(dp19
g11
cforth
COS
p20
sg2
(lp21
sg4
S'cmd'
p22
sg6
(dp23
sg16
g17
sbsS'DROP'
p24
(isym
Cmd
p25
(dp26
g11
cforth
DROP
p27
sg2
(lp28
sg4
S'cmd'
p29
sg6
(dp30
sg16
g24
sbsS'GROUP'
p31
(isym
Cmd
p32
(dp33
g11
cforth
GROUP
p34
sg2
(lp35
sg4
S'cmd'
p36
sg6
(dp37
sg16
g31
sbsS'SUB'
p38
(isym
Cmd
p39
(dp40
g11
cforth
SUB
p41
sg2
(lp42
sg4
S'cmd'
p43
sg6
(dp44
sg16
g38
sbsS'SAVE'
p45
(isym
Cmd
p46
(dp47
g11
cforth
SAVE
p48
sg2
(lp49
sg4
S'cmd'
p50
sg6
(dp51
sg16
g45
sbsS'OVER'
p52
(isym
Cmd
p53
(dp54
g11
cforth
OVER
p55
sg2
(lp56
sg4
S'cmd'
p57
sg6
(dp58
sg16
g52
sbsS'DROPALL'
p59
(isym
Cmd
p60
(dp61
g11
cforth
DROPALL
p62
sg2
(lp63
sg4
S'cmd'
p64
sg6
(dp65
sg16
g59
sbsS'EXECUTE'
p66
(isym
Cmd
p67
(dp68
g11
cforth
EXECUTE
p69
sg2
(lp70
sg4
S'cmd'
p71
sg6
(dp72
sg16
g66
sbsS'arm'
p73
(isym
Arch
p74
(dp75
g2
(lp76
sg4
S'arch'
p77
sg6
(dp78
sg16
g73
sbsVMETA
p79
(isym
Group
p80
(dp81
g2
(lp82
sg4
S'group'
p83
sg6
(dp84
Vweb
p85
(isym
Group
p86
(dp87
g2
(lp88
sg4
S'group'
p89
sg6
(dp90
VJSON
p91
(isym
Lang
p92
(dp93
g2
(lp94
sg4
S'lang'
p95
sg6
(dp96
sg16
g91
sbsVHTML
p97
(isym
Lang
p98
(dp99
g2
(lp100
sg4
S'lang'
p101
sg6
(dp102
sg16
g97
sbsVCSS
p103
(isym
Lang
p104
(dp105
g2
(lp106
sg4
S'lang'
p107
sg6
(dp108
sg16
g103
sbsVJS
p109
(isym
Lang
p110
(dp111
g2
(lp112
sg4
S'lang'
p113
sg6
(dp114
sg16
g109
sbssg16
g85
sbsVLLVM
p115
(isym
Compiler
p116
(dp117
g2
(lp118
sg4
S'compiler'
p119
sg6
(dp120
sg16
g115
sbsVPython
p121
(isym
Lang
p122
(dp123
g2
(lp124
sg4
S'lang'
p125
sg6
(dp126
sg16
g121
sbsVC89
p127
(isym
Lang
p128
(dp129
g2
(lp130
sg4
S'lang'
p131
sg6
(dp132
VCpp
p133
(isym
Lang
p134
(dp135
g2
(lp136
sg4
S'lang'
p137
sg6
(dp138
sg16
g133
sbssg16
g127
sbsVGo
p139
(isym
Lang
p140
(dp141
g2
(lp142
sg4
S'lang'
p143
sg6
(dp144
sg16
g139
sbsVFORTH
p145
(isym
Lang
p146
(dp147
g2
(lp148
sg4
S'lang'
p149
sg6
(dp150
Vdoc
p151
(isym
Group
p152
(dp153
g2
(lp154
(isym
Url
p155
(dp156
g2
(lp157
sg4
S'url'
p158
sg6
(dp159
sg16
Vhttp://www.forth200x.org/
p160
sbasg4
S'group'
p161
sg6
(dp162
VDPANS94
p163
(isym
Url
p164
(dp165
g2
(lp166
sg4
S'url'
p167
sg6
(dp168
sg16
Vhttp://lars.nocrew.org/dpans/dpans.htm
p169
sbsVhttp://gforth.org
p170
(isym
Symbol
p171
(dp172
g2
(lp173
sg4
S'symbol'
p174
sg6
(dp175
Vurl
p176
(isym
Url
p177
(dp178
g2
(lp179
sg4
S'url'
p180
sg6
(dp181
sg16
Vhttp://gforth.org
p182
sbsVdoc
p183
(isym
String
p184
(dp185
g2
(lp186
sg4
S'string'
p187
sg6
(dp188
sg16
VA free, fast, featureful and portable GNU implementation of the Forth 2012 language
p189
sbssg16
Vgforth
p190
sbsVISO
p191
(isym
String
p192
(dp193
g2
(lp194
sg4
S'string'
p195
sg6
(dp196
sg16
VISO/IEC 15145:1997 Information technology. Programming languages. FORTH
p197
sbssg16
g151
sbsg190
g171
sVcross
p198
(isym
Group
p199
(dp200
g2
(lp201
(isym
Url
p202
(dp203
g2
(lp204
sg4
S'url'
p205
sg6
(dp206
sg16
Vhttp://www.forth.com/downloads/ANS/XCpaper.pdf
p207
sba(isym
Url
p208
(dp209
g2
(lp210
sg4
S'url'
p211
sg6
(dp212
sg16
Vhttp://www.forth.com/downloads/ANS/XCapp5.pdf
p213
sba(isym
Url
p214
(dp215
g2
(lp216
sg4
S'url'
p217
sg6
(dp218
sg16
Vhttps://groups.google.com/forum/#!topic/comp.lang.forth/eYiPcW8uPRY
p219
sbasg4
S'group'
p220
sg6
(dp221
sg16
g198
sbsVpeople
p222
(isym
Group
p223
(dp224
g2
(lp225
sg4
S'group'
p226
sg6
(dp227
VDr.Cactus
p228
(isym
Symbol
p229
(dp230
g2
(lp231
(isym
Url
p232
(dp233
g2
(lp234
sg4
S'url'
p235
sg6
(dp236
sg16
Vhttp://www.forth.org.ru/~cactus/
p237
sbasg4
S'symbol'
p238
sg6
(dp239
Vemail
p240
(isym
String
p241
(dp242
g2
(lp243
sg4
S'string'
p244
sg6
(dp245
sg16
Vcactus@forth.org.ru
p246
sbssg16
g228
sbsVElizabethRather
p247
(isym
String
p248
(dp249
g2
(lp250
sg4
S'string'
p251
sg6
(dp252
sg16
VElizabeth D. Rather
p253
sbssg16
g222
sbssg16
g145
sbssg16
g79
sbsS'COMPILER'
p254
(isym
Cmd
p255
(dp256
g11
cforth
COMPILER
p257
sg2
(lp258
sg4
S'cmd'
p259
sg6
(dp260
sg16
g254
sbsS'FROG'
p261
(isym
Cmd
p262
(dp263
g11
cforth
FROG
p264
sg2
(lp265
sg4
S'cmd'
p266
sg6
(dp267
sg16
g261
sbsS'.SAVE'
p268
(isym
Cmd
p269
(dp270
g11
cforth
pSAVE
p271
sg2
(lp272
sg4
S'cmd'
p273
sg6
(dp274
sg16
S'pSAVE'
p275
sbsS'MUL'
p276
(isym
Cmd
p277
(dp278
g11
cforth
MUL
p279
sg2
(lp280
sg4
S'cmd'
p281
sg6
(dp282
sg16
g276
sbsS'DIV'
p283
(isym
Cmd
p284
(dp285
g11
cforth
DIV
p286
sg2
(lp287
sg4
S'cmd'
p288
sg6
(dp289
sg16
g283
sbsS'.STORE'
p290
(isym
Cmd
p291
(dp292
g11
cforth
pSTORE
p293
sg2
(lp294
sg4
S'cmd'
p295
sg6
(dp296
sg16
S'pSTORE'
p297
sbsS'ARCH'
p298
(isym
Cmd
p299
(dp300
g11
cforth
ARCH
p301
sg2
(lp302
sg4
S'cmd'
p303
sg6
(dp304
sg16
g298
sbsS'SIN'
p305
(isym
Cmd
p306
(dp307
g11
cforth
SIN
p308
sg2
(lp309
sg4
S'cmd'
p310
sg6
(dp311
sg16
g305
sbsS'FN'
p312
(isym
Cmd
p313
(dp314
g11
cforth
FN
p315
sg2
(lp316
sg4
S'cmd'
p317
sg6
(dp318
sg16
g312
sbsS'.SLOT'
p319
(isym
Cmd
p320
(dp321
g11
cforth
pSLOT
p322
sg2
(lp323
sg4
S'cmd'
p324
sg6
(dp325
sg16
S'pSLOT'
p326
sbsS'.DROP'
p327
(isym
Cmd
p328
(dp329
g11
cforth
pDROP
p330
sg2
(lp331
sg4
S'cmd'
p332
sg6
(dp333
sg16
S'pDROP'
p334
sbsS'TASK'
p335
(isym
Cmd
p336
(dp337
g11
cforth
TASK
p338
sg2
(lp339
sg4
S'cmd'
p340
sg6
(dp341
sg16
g335
sbsS'WORD'
p342
(isym
Cmd
p343
(dp344
g11
cforth
WORD
p345
sg2
(lp346
sg4
S'cmd'
p347
sg6
(dp348
sg16
g342
sbsS'$'
p349
(isym
Cmd
p350
(dp351
g11
g322
sg2
(lp352
sg4
S'cmd'
p353
sg6
(dp354
sg16
g326
sbsS'POW'
p355
(isym
Cmd
p356
(dp357
g11
cforth
POW
p358
sg2
(lp359
sg4
S'cmd'
p360
sg6
(dp361
sg16
g355
sbsS'+'
p362
(isym
Cmd
p363
(dp364
g11
cforth
ADD
p365
sg2
(lp366
sg4
S'cmd'
p367
sg6
(dp368
sg16
S'ADD'
p369
sbsS'*'
p370
(isym
Cmd
p371
(dp372
g11
g279
sg2
(lp373
sg4
S'cmd'
p374
sg6
(dp375
sg16
g276
sbsS'-'
p376
(isym
Cmd
p377
(dp378
g11
g41
sg2
(lp379
sg4
S'cmd'
p380
sg6
(dp381
sg16
g38
sbsS'/'
p382
(isym
Cmd
p383
(dp384
g11
g286
sg2
(lp385
sg4
S'cmd'
p386
sg6
(dp387
sg16
g283
sbsS'.'
p388
(isym
Cmd
p389
(dp390
g11
g62
sg2
(lp391
sg4
S'cmd'
p392
sg6
(dp393
sg16
g59
sbsS'STM32'
p394
(isym
Mcu
p395
(dp396
g2
(lp397
sg4
S'mcu'
p398
sg6
(dp399
Vuart
p400
(isym
Group
p401
(dp402
g2
(lp403
sg4
S'group'
p404
sg6
(dp405
VMX_USART2_UART_Init
p406
(isym
Fn
p407
(dp408
g2
(lp409
sg4
S'fn'
p410
sg6
(dp411
sg16
g406
sbsVMX_USART1_UART_Init
p412
(isym
Fn
p413
(dp414
g2
(lp415
sg4
S'fn'
p416
sg6
(dp417
sg16
g412
sbsVMX_USART3_UART_Init
p418
(isym
Fn
p419
(dp420
g2
(lp421
sg4
S'fn'
p422
sg6
(dp423
sg16
g418
sbssg16
g400
sbsVarch
p424
(isym
Arch
p425
(dp426
g2
(lp427
sg4
S'arch'
p428
sg6
(dp429
sg16
S'arm'
p430
sbsVSTM32L0
p431
(isym
Mcu
p432
(dp433
g2
(lp434
sg4
S'mcu'
p435
sg6
(dp436
sg16
g431
sbsVinit
p437
(isym
Symbol
p438
(dp439
g2
(lp440
sg4
S'symbol'
p441
sg6
(dp442
VMX_TIM4_Init
p443
(isym
Fn
p444
(dp445
g2
(lp446
sg4
S'fn'
p447
sg6
(dp448
sg16
g443
sbsVHAL_Init
p449
(isym
Fn
p450
(dp451
g2
(lp452
sg4
S'fn'
p453
sg6
(dp454
sg16
g449
sbsg412
g413
sVMX_RTC_Init
p455
(isym
Fn
p456
(dp457
g2
(lp458
sg4
S'fn'
p459
sg6
(dp460
sg16
g455
sbsg418
g419
sVMX_ADC1_Init
p461
(isym
Fn
p462
(dp463
g2
(lp464
sg4
S'fn'
p465
sg6
(dp466
sg16
g461
sbsVMX_IWDG_Init
p467
(isym
Fn
p468
(dp469
g2
(lp470
sg4
S'fn'
p471
sg6
(dp472
sg16
g467
sbsVMX_GPIO_Init
p473
(isym
Fn
p474
(dp475
g2
(lp476
sg4
S'fn'
p477
sg6
(dp478
sg16
g473
sbsg406
g407
sVmain
p479
(isym
Fn
p480
(dp481
g2
(lp482
sg4
S'fn'
p483
sg6
(dp484
sg16
g479
sbsVSystemClock_Config
p485
(isym
Fn
p486
(dp487
g2
(lp488
sg4
S'fn'
p489
sg6
(dp490
sg16
g485
sbssg16
g437
sbsVadc
p491
(isym
Group
p492
(dp493
g2
(lp494
sg4
S'group'
p495
sg6
(dp496
g461
g462
ssg16
g491
sbsVSTM32F4
p497
(isym
Mcu
p498
(dp499
g2
(lp500
sg4
S'mcu'
p501
sg6
(dp502
sg16
g497
sbsVgpio
p503
(isym
Group
p504
(dp505
g2
(lp506
sg4
S'group'
p507
sg6
(dp508
sg16
g503
sbsVSTM32F0
p509
(isym
Mcu
p510
(dp511
g2
(lp512
sg4
S'mcu'
p513
sg6
(dp514
sg16
g509
sbsVSTM32F1
p515
(isym
Mcu
p516
(dp517
g2
(lp518
sg4
S'mcu'
p519
sg6
(dp520
VSTM32F103
p521
(isym
Mcu
p522
(dp523
g2
(lp524
sg4
S'mcu'
p525
sg6
(dp526
VSTM32F103CBTx
p527
(isym
Mcu
p528
(dp529
g2
(lp530
sg4
S'mcu'
p531
sg6
(dp532
VRAM
p533
(isym
Integer
p534
(dp535
g2
(lp536
sg4
S'integer'
p537
sg6
(dp538
Vunit
p539
(isym
Symbol
p540
(dp541
g2
(lp542
sg4
S'symbol'
p543
sg6
(dp544
sg16
VKb
p545
sbssg16
I20
sbsVFLASH
p546
(isym
Integer
p547
(dp548
g2
(lp549
sg4
S'integer'
p550
sg6
(dp551
Vunit
p552
(isym
Symbol
p553
(dp554
g2
(lp555
sg4
S'symbol'
p556
sg6
(dp557
sg16
VKb
p558
sbssg16
I128
sbsVsuper
p559
g522
ssg16
g527
sbsVsuper
p560
g516
ssg16
g521
sbsVsuper
p561
(isym
Mcu
p562
(dp563
g2
(lp564
sg4
S'mcu'
p565
sg6
g399
sg16
S'STM32'
p566
sbssg16
g515
sbsVdsp
p567
(isym
Group
p568
(dp569
g2
(lp570
sg4
S'group'
p571
sg6
(dp572
g491
g492
ssg16
g567
sbssg16
g394
sbsS'NUM'
p573
(isym
Cmd
p574
(dp575
g11
cforth
NUM
p576
sg2
(lp577
sg4
S'cmd'
p578
sg6
(dp579
sg16
g573
sbsS'SWAP'
p580
(isym
Cmd
p581
(dp582
g11
cforth
SWAP
p583
sg2
(lp584
sg4
S'cmd'
p585
sg6
(dp586
sg16
g580
sbsS'WORDS'
p587
(isym
Cmd
p588
(dp589
g11
cforth
WORDS
p590
sg2
(lp591
sg4
S'cmd'
p592
sg6
(dp593
sg16
g587
sbsS'PRESS'
p594
(isym
Cmd
p595
(dp596
g11
cforth
PRESS
p597
sg2
(lp598
sg4
S'cmd'
p599
sg6
(dp600
sg16
g594
sbsS'SLON'
p601
(isym
Cmd
p602
(dp603
g11
cforth
SLON
p604
sg2
(lp605
sg4
S'cmd'
p606
sg6
(dp607
sg16
g601
sbsS'AXIS'
p608
(isym
Cmd
p609
(dp610
g11
cforth
AXIS
p611
sg2
(lp612
sg4
S'cmd'
p613
sg6
(dp614
sg16
g608
sbsS'STACK'
p615
(isym
Cmd
p616
(dp617
g11
cforth
STACK
p618
sg2
(lp619
sg4
S'cmd'
p620
sg6
(dp621
sg16
g615
sbsS'?'
p622
(isym
Cmd
p623
(dp624
g11
cforth
q
p625
sg2
(lp626
sg4
S'cmd'
p627
sg6
(dp628
sg16
S'q'
p629
sbsS'LOAD'
p630
(isym
Cmd
p631
(dp632
g11
cforth
LOAD
p633
sg2
(lp634
sg4
S'cmd'
p635
sg6
(dp636
sg16
g630
sbsS'@'
p637
(isym
Cmd
p638
(dp639
g11
cforth
pFETCH
p640
sg2
(lp641
sg4
S'cmd'
p642
sg6
(dp643
sg16
S'pFETCH'
p644
sbsS'.LOAD'
p645
(isym
Cmd
p646
(dp647
g11
cforth
pLOAD
p648
sg2
(lp649
sg4
S'cmd'
p650
sg6
(dp651
sg16
S'pLOAD'
p652
sbsS'E'
p653
(isym
Number
p654
(dp655
g2
(lp656
sg4
S'number'
p657
sg6
(dp658
sg16
F2.718281828459045
sbsS'x86'
p659
(isym
Arch
p660
(dp661
g2
(lp662
sg4
S'arch'
p663
sg6
(dp664
sg16
g659
sbsS'URL'
p665
(isym
Cmd
p666
(dp667
g11
cforth
URL
p668
sg2
(lp669
sg4
S'cmd'
p670
sg6
(dp671
sg16
g665
sbsS'CPU'
p672
(isym
Cmd
p673
(dp674
g11
cforth
CPU
p675
sg2
(lp676
sg4
S'cmd'
p677
sg6
(dp678
sg16
g672
sbsg527
g528
sS'VM'
p679
(iforth
FORTH
p680
(dp681
g2
(lp682
sg4
S'forth'
p683
sg6
g7
sg16
S'vm'
p684
sbsS'SYNTAX'
p685
(isym
Cmd
p686
(dp687
g11
cforth
SYNTAX
p688
sg2
(lp689
sg4
S'cmd'
p690
sg6
(dp691
sg16
g685
sbsg369
(isym
Cmd
p692
(dp693
g11
g365
sg2
(lp694
sg4
S'cmd'
p695
sg6
(dp696
sg16
g369
sbsS'!'
p697
(isym
Cmd
p698
(dp699
g11
g293
sg2
(lp700
sg4
S'cmd'
p701
sg6
(dp702
sg16
g297
sbsS'plan'
p703
(ipps
Plan
p704
(dp705
g2
(lp706
sg4
S'plan'
p707
sg6
(dp708
sg16
g703
sbsS'.POP'
p709
(isym
Cmd
p710
(dp711
g11
cforth
pPOP
p712
sg2
(lp713
sg4
S'cmd'
p714
sg6
(dp715
sg16
S'pPOP'
p716
sbsS'DUP'
p717
(isym
Cmd
p718
(dp719
g11
cforth
DUP
p720
sg2
(lp721
sg4
S'cmd'
p722
sg6
(dp723
sg16
g717
sbsS'mips'
p724
(isym
Arch
p725
(dp726
g2
(lp727
sg4
S'arch'
p728
sg6
(dp729
sg16
g724
sbsS'BYE'
p730
(isym
Cmd
p731
(dp732
g11
cforth
BYE
p733
sg2
(lp734
sg4
S'cmd'
p735
sg6
(dp736
sg16
g730
sbsS'LANG'
p737
(isym
Cmd
p738
(dp739
g11
cforth
LANG
p740
sg2
(lp741
sg4
S'cmd'
p742
sg6
(dp743
sg16
g737
sbsS'TAN'
p744
(isym
Cmd
p745
(dp746
g11
cforth
TAN
p747
sg2
(lp748
sg4
S'cmd'
p749
sg6
(dp750
sg16
g744
sbsS'.PUSH'
p751
(isym
Cmd
p752
(dp753
g11
cforth
pPUSH
p754
sg2
(lp755
sg4
S'cmd'
p756
sg6
(dp757
sg16
S'pPUSH'
p758
sbsS'^'
p759
(isym
Cmd
p760
(dp761
g11
g358
sg2
(lp762
sg4
S'cmd'
p763
sg6
(dp764
sg16
g355
sbsS'FIND'
p765
(isym
Cmd
p766
(dp767
g11
cforth
FIND
p768
sg2
(lp769
sg4
S'cmd'
p770
sg6
(dp771
sg16
g765
sbsS'MAP'
p772
(isym
Cmd
p773
(dp774
g11
cforth
MAP
p775
sg2
(lp776
sg4
S'cmd'
p777
sg6
(dp778
sg16
g772
sbsS'PI'
p779
(isym
Number
p780
(dp781
g2
(lp782
sg4
S'number'
p783
sg6
(dp784
sg16
F3.141592653589793
sbsS'.DEL'
p785
(isym
Cmd
p786
(dp787
g11
cforth
pDEL
p788
sg2
(lp789
sg4
S'cmd'
p790
sg6
(dp791
sg16
S'pDEL'
p792
sbsS'INT'
p793
(isym
Cmd
p794
(dp795
g11
cforth
INT
p796
sg2
(lp797
sg4
S'cmd'
p798
sg6
(dp799
sg16
g793
sbsS'//'
p800
(isym
Cmd
p801
(dp802
g11
g754
sg2
(lp803
sg4
S'cmd'
p804
sg6
(dp805
sg16
g758
sbsg145
g146
sS'SQRT'
p806
(isym
Cmd
p807
(dp808
g11
cforth
SQRT
p809
sg2
(lp810
sg4
S'cmd'
p811
sg6
(dp812
sg16
g806
sbsS'VECTOR'
p813
(isym
Cmd
p814
(dp815
g11
cforth
VECTOR
p816
sg2
(lp817
sg4
S'cmd'
p818
sg6
(dp819
sg16
g813
sbsS'INHER'
p820
(isym
Cmd
p821
(dp822
g11
cforth
INHER
p823
sg2
(lp824
sg4
S'cmd'
p825
sg6
(dp826
sg16
g820
sbsS'MCU'
p827
(isym
Cmd
p828
(dp829
g11
cforth
MCU
p830
sg2
(lp831
sg4
S'cmd'
p832
sg6
(dp833
sg16
g827
sbsS'%'
p834
(isym
Cmd
p835
(dp836
g11
cforth
MOD
p837
sg2
(lp838
sg4
S'cmd'
p839
sg6
(dp840
sg16
S'MOD'
p841
sbsS'.FETCH'
p842
(isym
Cmd
p843
(dp844
g11
g640
sg2
(lp845
sg4
S'cmd'
p846
sg6
(dp847
sg16
g644
sbsVbook
p848
(isym
Group
p849
(dp850
g2
(lp851
sg4
S'group'
p852
sg6
(dp853
Vforth
p854
(isym
Group
p855
(dp856
g2
(lp857
sg4
S'group'
p858
sg6
(dp859
Vthinking
p860
(isym
String
p861
(dp862
g2
(lp863
sg4
S'string'
p864
sg6
(dp865
Vurl
p866
(isym
Url
p867
(dp868
g2
(lp869
sg4
S'url'
p870
sg6
(dp871
sg16
Vhttp://thinking-forth.sourceforge.net/
p872
sbsVtitle
p873
(isym
String
p874
(dp875
g2
(lp876
sg4
S'string'
p877
sg6
(dp878
sg16
VThinking FORTH: A Language and Philosophy for Solving Problems
p879
sbssg16
VThinking Forth
p880
sbsVstarting
p881
(isym
String
p882
(dp883
g2
(lp884
sg4
S'string'
p885
sg6
(dp886
Vurl
p887
(isym
Url
p888
(dp889
g2
(lp890
sg4
S'url'
p891
sg6
(dp892
sg16
Vhttps://www.forth.com/starting-forth/
p893
sbsVpdf
p894
(isym
Url
p895
(dp896
g2
(lp897
sg4
S'url'
p898
sg6
(dp899
sg16
Vhttps://1scyem2bunjw1ghzsf1cjwwn-wpengine.netdna-ssl.com/wp-content/uploads/2018/01/Starting-FORTH.pdf
p900
sbssg16
VStarting FORTH
p901
sbsVdpans
p902
(isym
Url
p903
(dp904
g2
(lp905
sg4
S'url'
p906
sg6
(dp907
sg16
Vhttp://lars.nocrew.org/dpans/dpans.htm
p908
sbssg16
g854
sbssg16
g848
sbsS'INTERPRET'
p909
(isym
Cmd
p910
(dp911
g11
cforth
INTERPRET
p912
sg2
(lp913
sg4
S'cmd'
p914
sg6
(dp915
sg16
g909
sbsg841
(isym
Cmd
p916
(dp917
g11
g837
sg2
(lp918
sg4
S'cmd'
p919
sg6
(dp920
sg16
g841
sbssg16
S'vm'
p921
sb.