(iforth
FORTH
p0
(dp1
S'nest'
p2
(lp3
sS'type'
p4
S'forth'
p5
sS'attr'
p6
(dp7
S'OS'
p8
(isym
Cmd
p9
(dp10
S'fn'
p11
cforth
OS
p12
sg2
(lp13
sg4
S'cmd'
p14
sg6
(dp15
sS'value'
p16
g8
sbsS'COS'
p17
(isym
Cmd
p18
(dp19
g11
cforth
COS
p20
sg2
(lp21
sg4
S'cmd'
p22
sg6
(dp23
sg16
g17
sbsS'DROP'
p24
(isym
Cmd
p25
(dp26
g11
cforth
DROP
p27
sg2
(lp28
sg4
S'cmd'
p29
sg6
(dp30
sg16
g24
sbsS'GROUP'
p31
(isym
Cmd
p32
(dp33
g11
cforth
GROUP
p34
sg2
(lp35
sg4
S'cmd'
p36
sg6
(dp37
sg16
g31
sbsS'SUB'
p38
(isym
Cmd
p39
(dp40
g11
cforth
SUB
p41
sg2
(lp42
sg4
S'cmd'
p43
sg6
(dp44
sg16
g38
sbsS'OVER'
p45
(isym
Cmd
p46
(dp47
g11
cforth
OVER
p48
sg2
(lp49
sg4
S'cmd'
p50
sg6
(dp51
sg16
g45
sbsS'DROPALL'
p52
(isym
Cmd
p53
(dp54
g11
cforth
DROPALL
p55
sg2
(lp56
sg4
S'cmd'
p57
sg6
(dp58
sg16
g52
sbsS'EXECUTE'
p59
(isym
Cmd
p60
(dp61
g11
cforth
EXECUTE
p62
sg2
(lp63
sg4
S'cmd'
p64
sg6
(dp65
sg16
g59
sbsS'arm'
p66
(isym
Arch
p67
(dp68
g2
(lp69
sg4
S'arch'
p70
sg6
(dp71
sg16
g66
sbsS'FROG'
p72
(isym
Cmd
p73
(dp74
g11
cforth
FROG
p75
sg2
(lp76
sg4
S'cmd'
p77
sg6
(dp78
sg16
g72
sbsS'.SAVE'
p79
(isym
Cmd
p80
(dp81
g11
cforth
pSAVE
p82
sg2
(lp83
sg4
S'cmd'
p84
sg6
(dp85
sg16
S'pSAVE'
p86
sbsS'MUL'
p87
(isym
Cmd
p88
(dp89
g11
cforth
MUL
p90
sg2
(lp91
sg4
S'cmd'
p92
sg6
(dp93
sg16
g87
sbsS'DIV'
p94
(isym
Cmd
p95
(dp96
g11
cforth
DIV
p97
sg2
(lp98
sg4
S'cmd'
p99
sg6
(dp100
sg16
g94
sbsS'.STORE'
p101
(isym
Cmd
p102
(dp103
g11
cforth
pSTORE
p104
sg2
(lp105
sg4
S'cmd'
p106
sg6
(dp107
sg16
S'pSTORE'
p108
sbsS'ARCH'
p109
(isym
Cmd
p110
(dp111
g11
cforth
ARCH
p112
sg2
(lp113
sg4
S'cmd'
p114
sg6
(dp115
sg16
g109
sbsS'SIN'
p116
(isym
Cmd
p117
(dp118
g11
cforth
SIN
p119
sg2
(lp120
sg4
S'cmd'
p121
sg6
(dp122
sg16
g116
sbsS'FN'
p123
(isym
Cmd
p124
(dp125
g11
cforth
FN
p126
sg2
(lp127
sg4
S'cmd'
p128
sg6
(dp129
sg16
g123
sbsS'.SLOT'
p130
(isym
Cmd
p131
(dp132
g11
cforth
pSLOT
p133
sg2
(lp134
sg4
S'cmd'
p135
sg6
(dp136
sg16
S'pSLOT'
p137
sbsS'.DROP'
p138
(isym
Cmd
p139
(dp140
g11
cforth
pDROP
p141
sg2
(lp142
sg4
S'cmd'
p143
sg6
(dp144
sg16
S'pDROP'
p145
sbsS'TASK'
p146
(isym
Cmd
p147
(dp148
g11
cforth
TASK
p149
sg2
(lp150
sg4
S'cmd'
p151
sg6
(dp152
sg16
g146
sbsS'WORD'
p153
(isym
Cmd
p154
(dp155
g11
cforth
WORD
p156
sg2
(lp157
sg4
S'cmd'
p158
sg6
(dp159
sg16
g153
sbsS'$'
p160
(isym
Cmd
p161
(dp162
g11
g133
sg2
(lp163
sg4
S'cmd'
p164
sg6
(dp165
sg16
g137
sbsS'POW'
p166
(isym
Cmd
p167
(dp168
g11
cforth
POW
p169
sg2
(lp170
sg4
S'cmd'
p171
sg6
(dp172
sg16
g166
sbsS'+'
p173
(isym
Cmd
p174
(dp175
g11
cforth
ADD
p176
sg2
(lp177
sg4
S'cmd'
p178
sg6
(dp179
sg16
S'ADD'
p180
sbsS'*'
p181
(isym
Cmd
p182
(dp183
g11
g90
sg2
(lp184
sg4
S'cmd'
p185
sg6
(dp186
sg16
g87
sbsS'-'
p187
(isym
Cmd
p188
(dp189
g11
g41
sg2
(lp190
sg4
S'cmd'
p191
sg6
(dp192
sg16
g38
sbsS'/'
p193
(isym
Cmd
p194
(dp195
g11
g97
sg2
(lp196
sg4
S'cmd'
p197
sg6
(dp198
sg16
g94
sbsS'.'
p199
(isym
Cmd
p200
(dp201
g11
g55
sg2
(lp202
sg4
S'cmd'
p203
sg6
(dp204
sg16
g52
sbsS'STM32'
p205
(isym
Mcu
p206
(dp207
g2
(lp208
sg4
S'mcu'
p209
sg6
(dp210
Vuart
p211
(isym
Group
p212
(dp213
g2
(lp214
sg4
S'group'
p215
sg6
(dp216
VMX_USART2_UART_Init
p217
(isym
Fn
p218
(dp219
g2
(lp220
sg4
S'fn'
p221
sg6
(dp222
sg16
g217
sbsVMX_USART1_UART_Init
p223
(isym
Fn
p224
(dp225
g2
(lp226
sg4
S'fn'
p227
sg6
(dp228
sg16
g223
sbsVMX_USART3_UART_Init
p229
(isym
Fn
p230
(dp231
g2
(lp232
sg4
S'fn'
p233
sg6
(dp234
sg16
g229
sbssg16
g211
sbsVSTM32F0
p235
(isym
Mcu
p236
(dp237
g2
(lp238
sg4
S'mcu'
p239
sg6
(dp240
sg16
g235
sbsVSTM32L0
p241
(isym
Mcu
p242
(dp243
g2
(lp244
sg4
S'mcu'
p245
sg6
(dp246
sg16
g241
sbsVinit
p247
(isym
Symbol
p248
(dp249
g2
(lp250
sg4
S'symbol'
p251
sg6
(dp252
VMX_TIM4_Init
p253
(isym
Fn
p254
(dp255
g2
(lp256
sg4
S'fn'
p257
sg6
(dp258
sg16
g253
sbsVHAL_Init
p259
(isym
Fn
p260
(dp261
g2
(lp262
sg4
S'fn'
p263
sg6
(dp264
sg16
g259
sbsg223
g224
sVMX_RTC_Init
p265
(isym
Fn
p266
(dp267
g2
(lp268
sg4
S'fn'
p269
sg6
(dp270
sg16
g265
sbsg229
g230
sVSystemClock_Config
p271
(isym
Fn
p272
(dp273
g2
(lp274
sg4
S'fn'
p275
sg6
(dp276
sg16
g271
sbsVMX_IWDG_Init
p277
(isym
Fn
p278
(dp279
g2
(lp280
sg4
S'fn'
p281
sg6
(dp282
sg16
g277
sbsVMX_GPIO_Init
p283
(isym
Fn
p284
(dp285
g2
(lp286
sg4
S'fn'
p287
sg6
(dp288
sg16
g283
sbsg217
g218
sVmain
p289
(isym
Fn
p290
(dp291
g2
(lp292
sg4
S'fn'
p293
sg6
(dp294
sg16
g289
sbsVMX_ADC1_Init
p295
(isym
Fn
p296
(dp297
g2
(lp298
sg4
S'fn'
p299
sg6
(dp300
sg16
g295
sbssg16
g247
sbsVadc
p301
(isym
Group
p302
(dp303
g2
(lp304
sg4
S'group'
p305
sg6
(dp306
g295
g296
ssg16
g301
sbsVSTM32F4
p307
(isym
Mcu
p308
(dp309
g2
(lp310
sg4
S'mcu'
p311
sg6
(dp312
sg16
g307
sbsVgpio
p313
(isym
Group
p314
(dp315
g2
(lp316
sg4
S'group'
p317
sg6
(dp318
sg16
g313
sbsVarch
p319
(isym
Arch
p320
(dp321
g2
(lp322
sg4
S'arch'
p323
sg6
(dp324
sg16
S'arm'
p325
sbsVSTM32F1
p326
(isym
Mcu
p327
(dp328
g2
(lp329
sg4
S'mcu'
p330
sg6
(dp331
VSTM32F103
p332
(isym
Mcu
p333
(dp334
g2
(lp335
sg4
S'mcu'
p336
sg6
(dp337
VSTM32F103CBTx
p338
(isym
Mcu
p339
(dp340
g2
(lp341
sg4
S'mcu'
p342
sg6
(dp343
Vsuper
p344
g333
sVRAM
p345
(isym
Integer
p346
(dp347
g2
(lp348
sg4
S'integer'
p349
sg6
(dp350
Vunit
p351
(isym
Symbol
p352
(dp353
g2
(lp354
sg4
S'symbol'
p355
sg6
(dp356
sg16
VKb
p357
sbssg16
I20
sbsVFLASH
p358
(isym
Integer
p359
(dp360
g2
(lp361
sg4
S'integer'
p362
sg6
(dp363
Vunit
p364
(isym
Symbol
p365
(dp366
g2
(lp367
sg4
S'symbol'
p368
sg6
(dp369
sg16
VKb
p370
sbssg16
I128
sbssg16
g338
sbsVsuper
p371
g327
ssg16
g332
sbsVsuper
p372
g206
ssg16
g326
sbsVdsp
p373
(isym
Group
p374
(dp375
g2
(lp376
sg4
S'group'
p377
sg6
(dp378
g301
g302
ssg16
g373
sbssg16
g205
sbsS'NUM'
p379
(isym
Cmd
p380
(dp381
g11
cforth
NUM
p382
sg2
(lp383
sg4
S'cmd'
p384
sg6
(dp385
sg16
g379
sbsS'SWAP'
p386
(isym
Cmd
p387
(dp388
g11
cforth
SWAP
p389
sg2
(lp390
sg4
S'cmd'
p391
sg6
(dp392
sg16
g386
sbsS'WORDS'
p393
(isym
Cmd
p394
(dp395
g11
cforth
WORDS
p396
sg2
(lp397
sg4
S'cmd'
p398
sg6
(dp399
sg16
g393
sbsS'PRESS'
p400
(isym
Cmd
p401
(dp402
g11
cforth
PRESS
p403
sg2
(lp404
sg4
S'cmd'
p405
sg6
(dp406
sg16
g400
sbsS'TAN'
p407
(isym
Cmd
p408
(dp409
g11
cforth
TAN
p410
sg2
(lp411
sg4
S'cmd'
p412
sg6
(dp413
sg16
g407
sbsS'AXIS'
p414
(isym
Cmd
p415
(dp416
g11
cforth
AXIS
p417
sg2
(lp418
sg4
S'cmd'
p419
sg6
(dp420
sg16
g414
sbsS'STACK'
p421
(isym
Cmd
p422
(dp423
g11
cforth
STACK
p424
sg2
(lp425
sg4
S'cmd'
p426
sg6
(dp427
sg16
g421
sbsS'?'
p428
(isym
Cmd
p429
(dp430
g11
cforth
q
p431
sg2
(lp432
sg4
S'cmd'
p433
sg6
(dp434
sg16
S'q'
p435
sbsS'LOAD'
p436
(isym
Cmd
p437
(dp438
g11
cforth
LOAD
p439
sg2
(lp440
sg4
S'cmd'
p441
sg6
(dp442
sg16
g436
sbsS'@'
p443
(isym
Cmd
p444
(dp445
g11
cforth
pFETCH
p446
sg2
(lp447
sg4
S'cmd'
p448
sg6
(dp449
sg16
S'pFETCH'
p450
sbsS'.LOAD'
p451
(isym
Cmd
p452
(dp453
g11
cforth
pLOAD
p454
sg2
(lp455
sg4
S'cmd'
p456
sg6
(dp457
sg16
S'pLOAD'
p458
sbsS'E'
p459
(isym
Number
p460
(dp461
g2
(lp462
sg4
S'number'
p463
sg6
(dp464
sg16
F2.718281828459045
sbsS'x86'
p465
(isym
Arch
p466
(dp467
g2
(lp468
sg4
S'arch'
p469
sg6
(dp470
sg16
g465
sbsS'CPU'
p471
(isym
Cmd
p472
(dp473
g11
cforth
CPU
p474
sg2
(lp475
sg4
S'cmd'
p476
sg6
(dp477
sg16
g471
sbsg338
g339
sS'VM'
p478
(iforth
FORTH
p479
(dp480
g2
(lp481
g339
ag339
ag479
asg4
S'forth'
p482
sg6
g7
sg16
S'vm'
p483
sbsg180
(isym
Cmd
p484
(dp485
g11
g176
sg2
(lp486
sg4
S'cmd'
p487
sg6
(dp488
sg16
g180
sbsS'!'
p489
(isym
Cmd
p490
(dp491
g11
g104
sg2
(lp492
sg4
S'cmd'
p493
sg6
(dp494
sg16
g108
sbsS'plan'
p495
(ipps
Plan
p496
(dp497
g2
(lp498
sg4
S'plan'
p499
sg6
(dp500
Vhelth
p501
(ipps
Axis
p502
(dp503
g2
(lp504
sg4
S'axis'
p505
sg6
(dp506
sg16
g501
sbsVtask
p507
(isym
Map
p508
(dp509
g2
(lp510
sg4
S'map'
p511
sg6
(dp512
sg16
g507
sbsVplace
p513
(isym
Map
p514
(dp515
g2
(lp516
sg4
S'map'
p517
sg6
(dp518
sg16
Vplace
p519
sbsVnbiot
p520
(ipps
Task
p521
(dp522
g2
(lp523
sg4
S'task'
p524
sg6
(dp525
sg16
g520
sbsVfamily
p526
(ipps
Axis
p527
(dp528
g2
(lp529
sg4
S'axis'
p530
sg6
(dp531
sg16
g526
sbsVcgen
p532
(ipps
Task
p533
(dp534
g2
(lp535
sg4
S'task'
p536
sg6
(dp537
sg16
g532
sbsVbelka
p538
(ipps
Task
p539
(dp540
g2
(lp541
sg4
S'task'
p542
sg6
(dp543
sg16
g538
sbsVmoney
p544
(ipps
Axis
p545
(dp546
g2
(lp547
sg4
S'axis'
p548
sg6
(dp549
sg16
g544
sbsVuser
p550
(isym
Map
p551
(dp552
g2
(lp553
sg4
S'map'
p554
sg6
(dp555
sg16
Vuser
p556
sbsVmove
p557
(isym
Symbol
p558
(dp559
g2
(lp560
sg4
S'symbol'
p561
sg6
(dp562
sg16
g557
sbsVsklad
p563
(ipps
Slon
p564
(dp565
g2
(lp566
sg4
S'slon'
p567
sg6
(dp568
sg16
g563
sbsVpps
p569
(ipps
Slon
p570
(dp571
g2
(lp572
sg4
S'slon'
p573
sg6
(dp574
sg16
Vpps
p575
sbsVd3js
p576
(ipps
Task
p577
(dp578
g2
(lp579
sg4
S'task'
p580
sg6
(dp581
sg16
g576
sbsVvendi
p582
(ipps
Task
p583
(dp584
g2
(lp585
sg4
S'task'
p586
sg6
(dp587
sg16
g582
sbsVmeta
p588
(ipps
Axis
p589
(dp590
g2
(lp591
sg4
S'axis'
p592
sg6
(dp593
sg16
g588
sbsVdiy
p594
(ipps
Axis
p595
(dp596
g2
(lp597
sg4
S'axis'
p598
sg6
(dp599
sg16
g594
sbsVhome
p600
(ipps
Axis
p601
(dp602
g2
(lp603
sg4
S'axis'
p604
sg6
(dp605
sg16
Vhome
p606
sbsVprof
p607
(ipps
Axis
p608
(dp609
g2
(lp610
sg4
S'axis'
p611
sg6
(dp612
sg16
g607
sbsVbraslet
p613
(ipps
Task
p614
(dp615
g2
(lp616
sg4
S'task'
p617
sg6
(dp618
sg16
g613
sbsVprolog
p619
(ipps
Slon
p620
(dp621
g2
(lp622
sg4
S'slon'
p623
sg6
(dp624
sg16
g619
sbssg16
g495
sbsS'.POP'
p625
(isym
Cmd
p626
(dp627
g11
cforth
pPOP
p628
sg2
(lp629
sg4
S'cmd'
p630
sg6
(dp631
sg16
S'pPOP'
p632
sbsS'DUP'
p633
(isym
Cmd
p634
(dp635
g11
cforth
DUP
p636
sg2
(lp637
sg4
S'cmd'
p638
sg6
(dp639
sg16
g633
sbsS'mips'
p640
(isym
Arch
p641
(dp642
g2
(lp643
sg4
S'arch'
p644
sg6
(dp645
sg16
g640
sbsS'BYE'
p646
(isym
Cmd
p647
(dp648
g11
cforth
BYE
p649
sg2
(lp650
sg4
S'cmd'
p651
sg6
(dp652
sg16
g646
sbsS'SLON'
p653
(isym
Cmd
p654
(dp655
g11
cforth
SLON
p656
sg2
(lp657
sg4
S'cmd'
p658
sg6
(dp659
sg16
g653
sbsS'.PUSH'
p660
(isym
Cmd
p661
(dp662
g11
cforth
pPUSH
p663
sg2
(lp664
sg4
S'cmd'
p665
sg6
(dp666
sg16
S'pPUSH'
p667
sbsS'^'
p668
(isym
Cmd
p669
(dp670
g11
g169
sg2
(lp671
sg4
S'cmd'
p672
sg6
(dp673
sg16
g166
sbsS'FIND'
p674
(isym
Cmd
p675
(dp676
g11
cforth
FIND
p677
sg2
(lp678
sg4
S'cmd'
p679
sg6
(dp680
sg16
g674
sbsS'MAP'
p681
(isym
Cmd
p682
(dp683
g11
cforth
MAP
p684
sg2
(lp685
sg4
S'cmd'
p686
sg6
(dp687
sg16
g681
sbsS'PI'
p688
(isym
Number
p689
(dp690
g2
(lp691
sg4
S'number'
p692
sg6
(dp693
sg16
F3.141592653589793
sbsS'.DEL'
p694
(isym
Cmd
p695
(dp696
g11
cforth
pDEL
p697
sg2
(lp698
sg4
S'cmd'
p699
sg6
(dp700
sg16
S'pDEL'
p701
sbsS'%'
p702
(isym
Cmd
p703
(dp704
g11
cforth
MOD
p705
sg2
(lp706
sg4
S'cmd'
p707
sg6
(dp708
sg16
S'MOD'
p709
sbsS'INT'
p710
(isym
Cmd
p711
(dp712
g11
cforth
INT
p713
sg2
(lp714
sg4
S'cmd'
p715
sg6
(dp716
sg16
g710
sbsS'//'
p717
(isym
Cmd
p718
(dp719
g11
g663
sg2
(lp720
sg4
S'cmd'
p721
sg6
(dp722
sg16
g667
sbsS'SQRT'
p723
(isym
Cmd
p724
(dp725
g11
cforth
SQRT
p726
sg2
(lp727
sg4
S'cmd'
p728
sg6
(dp729
sg16
g723
sbsS'VECTOR'
p730
(isym
Cmd
p731
(dp732
g11
cforth
VECTOR
p733
sg2
(lp734
sg4
S'cmd'
p735
sg6
(dp736
sg16
g730
sbsS'INHER'
p737
(isym
Cmd
p738
(dp739
g11
cforth
INHER
p740
sg2
(lp741
sg4
S'cmd'
p742
sg6
(dp743
sg16
g737
sbsS'MCU'
p744
(isym
Cmd
p745
(dp746
g11
cforth
MCU
p747
sg2
(lp748
sg4
S'cmd'
p749
sg6
(dp750
sg16
g744
sbsS'SAVE'
p751
(isym
Cmd
p752
(dp753
g11
cforth
SAVE
p754
sg2
(lp755
sg4
S'cmd'
p756
sg6
(dp757
sg16
g751
sbsS'.FETCH'
p758
(isym
Cmd
p759
(dp760
g11
g446
sg2
(lp761
sg4
S'cmd'
p762
sg6
(dp763
sg16
g450
sbsS'INTERPRET'
p764
(isym
Cmd
p765
(dp766
g11
cforth
INTERPRET
p767
sg2
(lp768
sg4
S'cmd'
p769
sg6
(dp770
sg16
g764
sbsg709
(isym
Cmd
p771
(dp772
g11
g705
sg2
(lp773
sg4
S'cmd'
p774
sg6
(dp775
sg16
g709
sbssg16
S'vm'
p776
sb.