(iforth
FORTH
p0
(dp1
S'nest'
p2
(lp3
sS'type'
p4
S'forth'
p5
sS'attr'
p6
(dp7
S'COS'
p8
(isym
Cmd
p9
(dp10
S'fn'
p11
cforth
COS
p12
sg2
(lp13
sg4
S'cmd'
p14
sg6
(dp15
sS'value'
p16
g8
sbsS'*'
p17
(isym
Cmd
p18
(dp19
g11
cforth
MUL
p20
sg2
(lp21
sg4
S'cmd'
p22
sg6
(dp23
sg16
S'MUL'
p24
sbsS'GROUP'
p25
(isym
Cmd
p26
(dp27
g11
cforth
GROUP
p28
sg2
(lp29
sg4
S'cmd'
p30
sg6
(dp31
sg16
g25
sbsS'SUB'
p32
(isym
Cmd
p33
(dp34
g11
cforth
SUB
p35
sg2
(lp36
sg4
S'cmd'
p37
sg6
(dp38
sg16
g32
sbsS'OVER'
p39
(isym
Cmd
p40
(dp41
g11
cforth
OVER
p42
sg2
(lp43
sg4
S'cmd'
p44
sg6
(dp45
sg16
g39
sbsS'SLON'
p46
(isym
Cmd
p47
(dp48
g11
cforth
SLON
p49
sg2
(lp50
sg4
S'cmd'
p51
sg6
(dp52
sg16
g46
sbsS'EXECUTE'
p53
(isym
Cmd
p54
(dp55
g11
cforth
EXECUTE
p56
sg2
(lp57
sg4
S'cmd'
p58
sg6
(dp59
sg16
g53
sbsS'arm'
p60
(isym
Arch
p61
(dp62
g2
(lp63
sg4
S'arch'
p64
sg6
(dp65
sg16
g60
sbsS'^'
p66
(isym
Cmd
p67
(dp68
g11
cforth
POW
p69
sg2
(lp70
sg4
S'cmd'
p71
sg6
(dp72
sg16
S'POW'
p73
sbsVMETA
p74
(isym
Group
p75
(dp76
g2
(lp77
sg4
S'group'
p78
sg6
(dp79
Vweb
p80
(isym
Group
p81
(dp82
g2
(lp83
sg4
S'group'
p84
sg6
(dp85
VJSON
p86
(isym
Lang
p87
(dp88
g2
(lp89
sg4
S'lang'
p90
sg6
(dp91
sg16
g86
sbsVHTML
p92
(isym
Lang
p93
(dp94
g2
(lp95
sg4
S'lang'
p96
sg6
(dp97
sg16
g92
sbsVCSS
p98
(isym
Lang
p99
(dp100
g2
(lp101
sg4
S'lang'
p102
sg6
(dp103
sg16
g98
sbsVJS
p104
(isym
Lang
p105
(dp106
g2
(lp107
sg4
S'lang'
p108
sg6
(dp109
sg16
g104
sbssg16
g80
sbsVLLVM
p110
(isym
Compiler
p111
(dp112
g2
(lp113
sg4
S'compiler'
p114
sg6
(dp115
sg16
g110
sbsVPython
p116
(isym
Lang
p117
(dp118
g2
(lp119
sg4
S'lang'
p120
sg6
(dp121
sg16
g116
sbsVC89
p122
(isym
Lang
p123
(dp124
g2
(lp125
sg4
S'lang'
p126
sg6
(dp127
VCpp
p128
(isym
Lang
p129
(dp130
g2
(lp131
sg4
S'lang'
p132
sg6
(dp133
sg16
g128
sbssg16
g122
sbsVGo
p134
(isym
Lang
p135
(dp136
g2
(lp137
sg4
S'lang'
p138
sg6
(dp139
sg16
g134
sbsVFORTH
p140
(isym
Lang
p141
(dp142
g2
(lp143
sg4
S'lang'
p144
sg6
(dp145
Vdoc
p146
(isym
Group
p147
(dp148
g2
(lp149
sg4
S'group'
p150
sg6
(dp151
VDPANS94
p152
(isym
Url
p153
(dp154
g2
(lp155
sg4
S'url'
p156
sg6
(dp157
sg16
Vhttp://lars.nocrew.org/dpans/dpans.htm
p158
sbssg16
g146
sbsVcross
p159
(isym
Group
p160
(dp161
g2
(lp162
(isym
Url
p163
(dp164
g2
(lp165
sg4
S'url'
p166
sg6
(dp167
sg16
Vhttp://www.forth.com/downloads/ANS/XCpaper.pdf
p168
sba(isym
Url
p169
(dp170
g2
(lp171
sg4
S'url'
p172
sg6
(dp173
sg16
Vhttp://www.forth.com/downloads/ANS/XCapp5.pdf
p174
sba(isym
Url
p175
(dp176
g2
(lp177
sg4
S'url'
p178
sg6
(dp179
sg16
Vhttps://groups.google.com/forum/#!topic/comp.lang.forth/eYiPcW8uPRY
p180
sbasg4
S'group'
p181
sg6
(dp182
sg16
g159
sbsVpeople
p183
(isym
Group
p184
(dp185
g2
(lp186
sg4
S'group'
p187
sg6
(dp188
VDr.Cactus
p189
(isym
Symbol
p190
(dp191
g2
(lp192
(isym
Url
p193
(dp194
g2
(lp195
sg4
S'url'
p196
sg6
(dp197
sg16
Vhttp://www.forth.org.ru/~cactus/
p198
sbasg4
S'symbol'
p199
sg6
(dp200
Vemail
p201
(isym
String
p202
(dp203
g2
(lp204
sg4
S'string'
p205
sg6
(dp206
sg16
Vcactus@forth.org.ru
p207
sbssg16
g189
sbsVElizabethRather
p208
(isym
String
p209
(dp210
g2
(lp211
sg4
S'string'
p212
sg6
(dp213
sg16
VElizabeth D. Rather
p214
sbssg16
g183
sbssg16
g140
sbssg16
g74
sbsS'SQRT'
p215
(isym
Cmd
p216
(dp217
g11
cforth
SQRT
p218
sg2
(lp219
sg4
S'cmd'
p220
sg6
(dp221
sg16
g215
sbsS'.SAVE'
p222
(isym
Cmd
p223
(dp224
g11
cforth
pSAVE
p225
sg2
(lp226
sg4
S'cmd'
p227
sg6
(dp228
sg16
S'pSAVE'
p229
sbsg24
(isym
Cmd
p230
(dp231
g11
g20
sg2
(lp232
sg4
S'cmd'
p233
sg6
(dp234
sg16
g24
sbsS'DIV'
p235
(isym
Cmd
p236
(dp237
g11
cforth
DIV
p238
sg2
(lp239
sg4
S'cmd'
p240
sg6
(dp241
sg16
g235
sbsS'.'
p242
(isym
Cmd
p243
(dp244
g11
cforth
DROPALL
p245
sg2
(lp246
sg4
S'cmd'
p247
sg6
(dp248
sg16
S'DROPALL'
p249
sbsS'ARCH'
p250
(isym
Cmd
p251
(dp252
g11
cforth
ARCH
p253
sg2
(lp254
sg4
S'cmd'
p255
sg6
(dp256
sg16
g250
sbsS'SIN'
p257
(isym
Cmd
p258
(dp259
g11
cforth
SIN
p260
sg2
(lp261
sg4
S'cmd'
p262
sg6
(dp263
sg16
g257
sbsS'FN'
p264
(isym
Cmd
p265
(dp266
g11
cforth
FN
p267
sg2
(lp268
sg4
S'cmd'
p269
sg6
(dp270
sg16
g264
sbsS'.SLOT'
p271
(isym
Cmd
p272
(dp273
g11
cforth
pSLOT
p274
sg2
(lp275
sg4
S'cmd'
p276
sg6
(dp277
sg16
S'pSLOT'
p278
sbsS'.DROP'
p279
(isym
Cmd
p280
(dp281
g11
cforth
pDROP
p282
sg2
(lp283
sg4
S'cmd'
p284
sg6
(dp285
sg16
S'pDROP'
p286
sbsS'TASK'
p287
(isym
Cmd
p288
(dp289
g11
cforth
TASK
p290
sg2
(lp291
sg4
S'cmd'
p292
sg6
(dp293
sg16
g287
sbsS'WORD'
p294
(isym
Cmd
p295
(dp296
g11
cforth
WORD
p297
sg2
(lp298
sg4
S'cmd'
p299
sg6
(dp300
sg16
g294
sbsS'$'
p301
(isym
Cmd
p302
(dp303
g11
g274
sg2
(lp304
sg4
S'cmd'
p305
sg6
(dp306
sg16
g278
sbsg73
(isym
Cmd
p307
(dp308
g11
g69
sg2
(lp309
sg4
S'cmd'
p310
sg6
(dp311
sg16
g73
sbsS'+'
p312
(isym
Cmd
p313
(dp314
g11
cforth
ADD
p315
sg2
(lp316
sg4
S'cmd'
p317
sg6
(dp318
sg16
S'ADD'
p319
sbsS'DROP'
p320
(isym
Cmd
p321
(dp322
g11
cforth
DROP
p323
sg2
(lp324
sg4
S'cmd'
p325
sg6
(dp326
sg16
g320
sbsS'-'
p327
(isym
Cmd
p328
(dp329
g11
g35
sg2
(lp330
sg4
S'cmd'
p331
sg6
(dp332
sg16
g32
sbsS'/'
p333
(isym
Cmd
p334
(dp335
g11
g238
sg2
(lp336
sg4
S'cmd'
p337
sg6
(dp338
sg16
g235
sbsS'.STORE'
p339
(isym
Cmd
p340
(dp341
g11
cforth
pSTORE
p342
sg2
(lp343
sg4
S'cmd'
p344
sg6
(dp345
sg16
S'pSTORE'
p346
sbsS'STM32'
p347
(isym
Mcu
p348
(dp349
g2
(lp350
sg4
S'mcu'
p351
sg6
(dp352
Vuart
p353
(isym
Group
p354
(dp355
g2
(lp356
sg4
S'group'
p357
sg6
(dp358
VMX_USART2_UART_Init
p359
(isym
Fn
p360
(dp361
g2
(lp362
sg4
S'fn'
p363
sg6
(dp364
sg16
g359
sbsVMX_USART1_UART_Init
p365
(isym
Fn
p366
(dp367
g2
(lp368
sg4
S'fn'
p369
sg6
(dp370
sg16
g365
sbsVMX_USART3_UART_Init
p371
(isym
Fn
p372
(dp373
g2
(lp374
sg4
S'fn'
p375
sg6
(dp376
sg16
g371
sbssg16
g353
sbsVSTM32F0
p377
(isym
Mcu
p378
(dp379
g2
(lp380
sg4
S'mcu'
p381
sg6
(dp382
sg16
g377
sbsVSTM32L0
p383
(isym
Mcu
p384
(dp385
g2
(lp386
sg4
S'mcu'
p387
sg6
(dp388
sg16
g383
sbsVinit
p389
(isym
Symbol
p390
(dp391
g2
(lp392
sg4
S'symbol'
p393
sg6
(dp394
VMX_TIM4_Init
p395
(isym
Fn
p396
(dp397
g2
(lp398
sg4
S'fn'
p399
sg6
(dp400
sg16
g395
sbsVHAL_Init
p401
(isym
Fn
p402
(dp403
g2
(lp404
sg4
S'fn'
p405
sg6
(dp406
sg16
g401
sbsg365
g366
sVMX_RTC_Init
p407
(isym
Fn
p408
(dp409
g2
(lp410
sg4
S'fn'
p411
sg6
(dp412
sg16
g407
sbsg371
g372
sVSystemClock_Config
p413
(isym
Fn
p414
(dp415
g2
(lp416
sg4
S'fn'
p417
sg6
(dp418
sg16
g413
sbsVMX_IWDG_Init
p419
(isym
Fn
p420
(dp421
g2
(lp422
sg4
S'fn'
p423
sg6
(dp424
sg16
g419
sbsVMX_GPIO_Init
p425
(isym
Fn
p426
(dp427
g2
(lp428
sg4
S'fn'
p429
sg6
(dp430
sg16
g425
sbsg359
g360
sVmain
p431
(isym
Fn
p432
(dp433
g2
(lp434
sg4
S'fn'
p435
sg6
(dp436
sg16
g431
sbsVMX_ADC1_Init
p437
(isym
Fn
p438
(dp439
g2
(lp440
sg4
S'fn'
p441
sg6
(dp442
sg16
g437
sbssg16
g389
sbsVadc
p443
(isym
Group
p444
(dp445
g2
(lp446
sg4
S'group'
p447
sg6
(dp448
g437
g438
ssg16
g443
sbsVSTM32F4
p449
(isym
Mcu
p450
(dp451
g2
(lp452
sg4
S'mcu'
p453
sg6
(dp454
sg16
g449
sbsVgpio
p455
(isym
Group
p456
(dp457
g2
(lp458
sg4
S'group'
p459
sg6
(dp460
sg16
g455
sbsVarch
p461
(isym
Arch
p462
(dp463
g2
(lp464
sg4
S'arch'
p465
sg6
(dp466
sg16
S'arm'
p467
sbsVSTM32F1
p468
(isym
Mcu
p469
(dp470
g2
(lp471
sg4
S'mcu'
p472
sg6
(dp473
VSTM32F103
p474
(isym
Mcu
p475
(dp476
g2
(lp477
sg4
S'mcu'
p478
sg6
(dp479
VSTM32F103CBTx
p480
(isym
Mcu
p481
(dp482
g2
(lp483
sg4
S'mcu'
p484
sg6
(dp485
VFLASH
p486
(isym
Integer
p487
(dp488
g2
(lp489
sg4
S'integer'
p490
sg6
(dp491
Vunit
p492
(isym
Symbol
p493
(dp494
g2
(lp495
sg4
S'symbol'
p496
sg6
(dp497
sg16
VKb
p498
sbssg16
I128
sbsVRAM
p499
(isym
Integer
p500
(dp501
g2
(lp502
sg4
S'integer'
p503
sg6
(dp504
Vunit
p505
(isym
Symbol
p506
(dp507
g2
(lp508
sg4
S'symbol'
p509
sg6
(dp510
sg16
VKb
p511
sbssg16
I20
sbsVsuper
p512
g475
ssg16
g480
sbsVsuper
p513
g469
ssg16
g474
sbsVsuper
p514
(isym
Mcu
p515
(dp516
g2
(lp517
sg4
S'mcu'
p518
sg6
g352
sg16
S'STM32'
p519
sbssg16
g468
sbsVdsp
p520
(isym
Group
p521
(dp522
g2
(lp523
sg4
S'group'
p524
sg6
(dp525
g443
g444
ssg16
g520
sbssg16
g347
sbsS'NUM'
p526
(isym
Cmd
p527
(dp528
g11
cforth
NUM
p529
sg2
(lp530
sg4
S'cmd'
p531
sg6
(dp532
sg16
g526
sbsS'SWAP'
p533
(isym
Cmd
p534
(dp535
g11
cforth
SWAP
p536
sg2
(lp537
sg4
S'cmd'
p538
sg6
(dp539
sg16
g533
sbsS'WORDS'
p540
(isym
Cmd
p541
(dp542
g11
cforth
WORDS
p543
sg2
(lp544
sg4
S'cmd'
p545
sg6
(dp546
sg16
g540
sbsS'PRESS'
p547
(isym
Cmd
p548
(dp549
g11
cforth
PRESS
p550
sg2
(lp551
sg4
S'cmd'
p552
sg6
(dp553
sg16
g547
sbsS'.FETCH'
p554
(isym
Cmd
p555
(dp556
g11
cforth
pFETCH
p557
sg2
(lp558
sg4
S'cmd'
p559
sg6
(dp560
sg16
S'pFETCH'
p561
sbsS'TAN'
p562
(isym
Cmd
p563
(dp564
g11
cforth
TAN
p565
sg2
(lp566
sg4
S'cmd'
p567
sg6
(dp568
sg16
g562
sbsS'AXIS'
p569
(isym
Cmd
p570
(dp571
g11
cforth
AXIS
p572
sg2
(lp573
sg4
S'cmd'
p574
sg6
(dp575
sg16
g569
sbsS'STACK'
p576
(isym
Cmd
p577
(dp578
g11
cforth
STACK
p579
sg2
(lp580
sg4
S'cmd'
p581
sg6
(dp582
sg16
g576
sbsS'?'
p583
(isym
Cmd
p584
(dp585
g11
cforth
q
p586
sg2
(lp587
sg4
S'cmd'
p588
sg6
(dp589
sg16
S'q'
p590
sbsS'LOAD'
p591
(isym
Cmd
p592
(dp593
g11
cforth
LOAD
p594
sg2
(lp595
sg4
S'cmd'
p596
sg6
(dp597
sg16
g591
sbsS'@'
p598
(isym
Cmd
p599
(dp600
g11
g557
sg2
(lp601
sg4
S'cmd'
p602
sg6
(dp603
sg16
g561
sbsS'VECTOR'
p604
(isym
Cmd
p605
(dp606
g11
cforth
VECTOR
p607
sg2
(lp608
sg4
S'cmd'
p609
sg6
(dp610
sg16
g604
sbsS'.LOAD'
p611
(isym
Cmd
p612
(dp613
g11
cforth
pLOAD
p614
sg2
(lp615
sg4
S'cmd'
p616
sg6
(dp617
sg16
S'pLOAD'
p618
sbsS'E'
p619
(isym
Number
p620
(dp621
g2
(lp622
sg4
S'number'
p623
sg6
(dp624
sg16
F2.718281828459045
sbsS'x86'
p625
(isym
Arch
p626
(dp627
g2
(lp628
sg4
S'arch'
p629
sg6
(dp630
sg16
g625
sbsS'URL'
p631
(isym
Cmd
p632
(dp633
g11
cforth
URL
p634
sg2
(lp635
sg4
S'cmd'
p636
sg6
(dp637
sg16
g631
sbsS'CPU'
p638
(isym
Cmd
p639
(dp640
g11
cforth
CPU
p641
sg2
(lp642
sg4
S'cmd'
p643
sg6
(dp644
sg16
g638
sbsg480
g481
sS'VM'
p645
(iforth
FORTH
p646
(dp647
g2
(lp648
sg4
S'forth'
p649
sg6
g7
sg16
S'vm'
p650
sbsS'SYNTAX'
p651
(isym
Cmd
p652
(dp653
g11
cforth
SYNTAX
p654
sg2
(lp655
sg4
S'cmd'
p656
sg6
(dp657
sg16
g651
sbsg319
(isym
Cmd
p658
(dp659
g11
g315
sg2
(lp660
sg4
S'cmd'
p661
sg6
(dp662
sg16
g319
sbsS'!'
p663
(isym
Cmd
p664
(dp665
g11
g342
sg2
(lp666
sg4
S'cmd'
p667
sg6
(dp668
sg16
g346
sbsS'plan'
p669
(ipps
Plan
p670
(dp671
g2
(lp672
sg4
S'plan'
p673
sg6
(dp674
sg16
g669
sbsS'.POP'
p675
(isym
Cmd
p676
(dp677
g11
cforth
pPOP
p678
sg2
(lp679
sg4
S'cmd'
p680
sg6
(dp681
sg16
S'pPOP'
p682
sbsS'DUP'
p683
(isym
Cmd
p684
(dp685
g11
cforth
DUP
p686
sg2
(lp687
sg4
S'cmd'
p688
sg6
(dp689
sg16
g683
sbsS'mips'
p690
(isym
Arch
p691
(dp692
g2
(lp693
sg4
S'arch'
p694
sg6
(dp695
sg16
g690
sbsS'BYE'
p696
(isym
Cmd
p697
(dp698
g11
cforth
BYE
p699
sg2
(lp700
sg4
S'cmd'
p701
sg6
(dp702
sg16
g696
sbsS'%'
p703
(isym
Cmd
p704
(dp705
g11
cforth
MOD
p706
sg2
(lp707
sg4
S'cmd'
p708
sg6
(dp709
sg16
S'MOD'
p710
sbsS'.PUSH'
p711
(isym
Cmd
p712
(dp713
g11
cforth
pPUSH
p714
sg2
(lp715
sg4
S'cmd'
p716
sg6
(dp717
sg16
S'pPUSH'
p718
sbsS'LANG'
p719
(isym
Cmd
p720
(dp721
g11
cforth
LANG
p722
sg2
(lp723
sg4
S'cmd'
p724
sg6
(dp725
sg16
g719
sbsS'FIND'
p726
(isym
Cmd
p727
(dp728
g11
cforth
FIND
p729
sg2
(lp730
sg4
S'cmd'
p731
sg6
(dp732
sg16
g726
sbsS'MAP'
p733
(isym
Cmd
p734
(dp735
g11
cforth
MAP
p736
sg2
(lp737
sg4
S'cmd'
p738
sg6
(dp739
sg16
g733
sbsS'PI'
p740
(isym
Number
p741
(dp742
g2
(lp743
sg4
S'number'
p744
sg6
(dp745
sg16
F3.141592653589793
sbsS'.DEL'
p746
(isym
Cmd
p747
(dp748
g11
cforth
pDEL
p749
sg2
(lp750
sg4
S'cmd'
p751
sg6
(dp752
sg16
S'pDEL'
p753
sbsS'INT'
p754
(isym
Cmd
p755
(dp756
g11
cforth
INT
p757
sg2
(lp758
sg4
S'cmd'
p759
sg6
(dp760
sg16
g754
sbsS'//'
p761
(isym
Cmd
p762
(dp763
g11
g714
sg2
(lp764
sg4
S'cmd'
p765
sg6
(dp766
sg16
g718
sbsg140
g141
sS'FROG'
p767
(isym
Cmd
p768
(dp769
g11
cforth
FROG
p770
sg2
(lp771
sg4
S'cmd'
p772
sg6
(dp773
sg16
g767
sbsg249
(isym
Cmd
p774
(dp775
g11
g245
sg2
(lp776
sg4
S'cmd'
p777
sg6
(dp778
sg16
g249
sbsS'INHER'
p779
(isym
Cmd
p780
(dp781
g11
cforth
INHER
p782
sg2
(lp783
sg4
S'cmd'
p784
sg6
(dp785
sg16
g779
sbsS'MCU'
p786
(isym
Cmd
p787
(dp788
g11
cforth
MCU
p789
sg2
(lp790
sg4
S'cmd'
p791
sg6
(dp792
sg16
g786
sbsS'SAVE'
p793
(isym
Cmd
p794
(dp795
g11
cforth
SAVE
p796
sg2
(lp797
sg4
S'cmd'
p798
sg6
(dp799
sg16
g793
sbsS'OS'
p800
(isym
Cmd
p801
(dp802
g11
cforth
OS
p803
sg2
(lp804
sg4
S'cmd'
p805
sg6
(dp806
sg16
g800
sbsS'COMPILER'
p807
(isym
Cmd
p808
(dp809
g11
cforth
COMPILER
p810
sg2
(lp811
sg4
S'cmd'
p812
sg6
(dp813
sg16
g807
sbsS'INTERPRET'
p814
(isym
Cmd
p815
(dp816
g11
cforth
INTERPRET
p817
sg2
(lp818
sg4
S'cmd'
p819
sg6
(dp820
sg16
g814
sbsg710
(isym
Cmd
p821
(dp822
g11
g706
sg2
(lp823
sg4
S'cmd'
p824
sg6
(dp825
sg16
g710
sbssg16
S'vm'
p826
sb.