(iforth
FORTH
p0
(dp1
S'nest'
p2
(lp3
sS'type'
p4
S'forth'
p5
sS'attr'
p6
(dp7
S'COS'
p8
(isym
Cmd
p9
(dp10
S'fn'
p11
cforth
COS
p12
sg2
(lp13
sg4
S'cmd'
p14
sg6
(dp15
sS'value'
p16
g8
sbsS'*'
p17
(isym
Cmd
p18
(dp19
g11
cforth
MUL
p20
sg2
(lp21
sg4
S'cmd'
p22
sg6
(dp23
sg16
S'MUL'
p24
sbsS'GROUP'
p25
(isym
Cmd
p26
(dp27
g11
cforth
GROUP
p28
sg2
(lp29
sg4
S'cmd'
p30
sg6
(dp31
sg16
g25
sbsS'SUB'
p32
(isym
Cmd
p33
(dp34
g11
cforth
SUB
p35
sg2
(lp36
sg4
S'cmd'
p37
sg6
(dp38
sg16
g32
sbsS'OVER'
p39
(isym
Cmd
p40
(dp41
g11
cforth
OVER
p42
sg2
(lp43
sg4
S'cmd'
p44
sg6
(dp45
sg16
g39
sbsS'SLON'
p46
(isym
Cmd
p47
(dp48
g11
cforth
SLON
p49
sg2
(lp50
sg4
S'cmd'
p51
sg6
(dp52
sg16
g46
sbsS'EXECUTE'
p53
(isym
Cmd
p54
(dp55
g11
cforth
EXECUTE
p56
sg2
(lp57
sg4
S'cmd'
p58
sg6
(dp59
sg16
g53
sbsS'arm'
p60
(isym
Arch
p61
(dp62
g2
(lp63
sg4
S'arch'
p64
sg6
(dp65
sg16
g60
sbsS'^'
p66
(isym
Cmd
p67
(dp68
g11
cforth
POW
p69
sg2
(lp70
sg4
S'cmd'
p71
sg6
(dp72
sg16
S'POW'
p73
sbsVMETA
p74
(isym
Group
p75
(dp76
g2
(lp77
sg4
S'group'
p78
sg6
(dp79
Vweb
p80
(isym
Group
p81
(dp82
g2
(lp83
sg4
S'group'
p84
sg6
(dp85
VJSON
p86
(isym
Lang
p87
(dp88
g2
(lp89
sg4
S'lang'
p90
sg6
(dp91
sg16
g86
sbsVHTML
p92
(isym
Lang
p93
(dp94
g2
(lp95
sg4
S'lang'
p96
sg6
(dp97
sg16
g92
sbsVCSS
p98
(isym
Lang
p99
(dp100
g2
(lp101
sg4
S'lang'
p102
sg6
(dp103
sg16
g98
sbsVJS
p104
(isym
Lang
p105
(dp106
g2
(lp107
sg4
S'lang'
p108
sg6
(dp109
sg16
g104
sbssg16
g80
sbsVLLVM
p110
(isym
Compiler
p111
(dp112
g2
(lp113
sg4
S'compiler'
p114
sg6
(dp115
sg16
g110
sbsVPython
p116
(isym
Lang
p117
(dp118
g2
(lp119
sg4
S'lang'
p120
sg6
(dp121
sg16
g116
sbsVC89
p122
(isym
Lang
p123
(dp124
g2
(lp125
sg4
S'lang'
p126
sg6
(dp127
VCpp
p128
(isym
Lang
p129
(dp130
g2
(lp131
sg4
S'lang'
p132
sg6
(dp133
sg16
g128
sbssg16
g122
sbsVGo
p134
(isym
Lang
p135
(dp136
g2
(lp137
sg4
S'lang'
p138
sg6
(dp139
sg16
g134
sbsVFORTH
p140
(isym
Lang
p141
(dp142
g2
(lp143
sg4
S'lang'
p144
sg6
(dp145
Vdoc
p146
(isym
Group
p147
(dp148
g2
(lp149
(isym
Url
p150
(dp151
g2
(lp152
sg4
S'url'
p153
sg6
(dp154
sg16
Vhttp://www.forth200x.org/
p155
sbasg4
S'group'
p156
sg6
(dp157
VDPANS94
p158
(isym
Url
p159
(dp160
g2
(lp161
sg4
S'url'
p162
sg6
(dp163
sg16
Vhttp://lars.nocrew.org/dpans/dpans.htm
p164
sbsVhttp://gforth.org
p165
(isym
Symbol
p166
(dp167
g2
(lp168
sg4
S'symbol'
p169
sg6
(dp170
Vurl
p171
(isym
Url
p172
(dp173
g2
(lp174
sg4
S'url'
p175
sg6
(dp176
sg16
Vhttp://gforth.org
p177
sbsVdoc
p178
(isym
String
p179
(dp180
g2
(lp181
sg4
S'string'
p182
sg6
(dp183
sg16
VA free, fast, featureful and portable GNU implementation of the Forth 2012 language
p184
sbssg16
Vgforth
p185
sbssg16
g146
sbsg185
g166
sVcross
p186
(isym
Group
p187
(dp188
g2
(lp189
(isym
Url
p190
(dp191
g2
(lp192
sg4
S'url'
p193
sg6
(dp194
sg16
Vhttp://www.forth.com/downloads/ANS/XCpaper.pdf
p195
sba(isym
Url
p196
(dp197
g2
(lp198
sg4
S'url'
p199
sg6
(dp200
sg16
Vhttp://www.forth.com/downloads/ANS/XCapp5.pdf
p201
sba(isym
Url
p202
(dp203
g2
(lp204
sg4
S'url'
p205
sg6
(dp206
sg16
Vhttps://groups.google.com/forum/#!topic/comp.lang.forth/eYiPcW8uPRY
p207
sbasg4
S'group'
p208
sg6
(dp209
sg16
g186
sbsVpeople
p210
(isym
Group
p211
(dp212
g2
(lp213
sg4
S'group'
p214
sg6
(dp215
VDr.Cactus
p216
(isym
Symbol
p217
(dp218
g2
(lp219
(isym
Url
p220
(dp221
g2
(lp222
sg4
S'url'
p223
sg6
(dp224
sg16
Vhttp://www.forth.org.ru/~cactus/
p225
sbasg4
S'symbol'
p226
sg6
(dp227
Vemail
p228
(isym
String
p229
(dp230
g2
(lp231
sg4
S'string'
p232
sg6
(dp233
sg16
Vcactus@forth.org.ru
p234
sbssg16
g216
sbsVElizabethRather
p235
(isym
String
p236
(dp237
g2
(lp238
sg4
S'string'
p239
sg6
(dp240
sg16
VElizabeth D. Rather
p241
sbssg16
g210
sbssg16
g140
sbssg16
g74
sbsS'SQRT'
p242
(isym
Cmd
p243
(dp244
g11
cforth
SQRT
p245
sg2
(lp246
sg4
S'cmd'
p247
sg6
(dp248
sg16
g242
sbsS'.SAVE'
p249
(isym
Cmd
p250
(dp251
g11
cforth
pSAVE
p252
sg2
(lp253
sg4
S'cmd'
p254
sg6
(dp255
sg16
S'pSAVE'
p256
sbsg24
(isym
Cmd
p257
(dp258
g11
g20
sg2
(lp259
sg4
S'cmd'
p260
sg6
(dp261
sg16
g24
sbsS'DIV'
p262
(isym
Cmd
p263
(dp264
g11
cforth
DIV
p265
sg2
(lp266
sg4
S'cmd'
p267
sg6
(dp268
sg16
g262
sbsS'.'
p269
(isym
Cmd
p270
(dp271
g11
cforth
DROPALL
p272
sg2
(lp273
sg4
S'cmd'
p274
sg6
(dp275
sg16
S'DROPALL'
p276
sbsS'ARCH'
p277
(isym
Cmd
p278
(dp279
g11
cforth
ARCH
p280
sg2
(lp281
sg4
S'cmd'
p282
sg6
(dp283
sg16
g277
sbsS'SIN'
p284
(isym
Cmd
p285
(dp286
g11
cforth
SIN
p287
sg2
(lp288
sg4
S'cmd'
p289
sg6
(dp290
sg16
g284
sbsS'FN'
p291
(isym
Cmd
p292
(dp293
g11
cforth
FN
p294
sg2
(lp295
sg4
S'cmd'
p296
sg6
(dp297
sg16
g291
sbsS'.SLOT'
p298
(isym
Cmd
p299
(dp300
g11
cforth
pSLOT
p301
sg2
(lp302
sg4
S'cmd'
p303
sg6
(dp304
sg16
S'pSLOT'
p305
sbsS'.DROP'
p306
(isym
Cmd
p307
(dp308
g11
cforth
pDROP
p309
sg2
(lp310
sg4
S'cmd'
p311
sg6
(dp312
sg16
S'pDROP'
p313
sbsS'TASK'
p314
(isym
Cmd
p315
(dp316
g11
cforth
TASK
p317
sg2
(lp318
sg4
S'cmd'
p319
sg6
(dp320
sg16
g314
sbsS'WORD'
p321
(isym
Cmd
p322
(dp323
g11
cforth
WORD
p324
sg2
(lp325
sg4
S'cmd'
p326
sg6
(dp327
sg16
g321
sbsS'$'
p328
(isym
Cmd
p329
(dp330
g11
g301
sg2
(lp331
sg4
S'cmd'
p332
sg6
(dp333
sg16
g305
sbsg73
(isym
Cmd
p334
(dp335
g11
g69
sg2
(lp336
sg4
S'cmd'
p337
sg6
(dp338
sg16
g73
sbsS'+'
p339
(isym
Cmd
p340
(dp341
g11
cforth
ADD
p342
sg2
(lp343
sg4
S'cmd'
p344
sg6
(dp345
sg16
S'ADD'
p346
sbsS'DROP'
p347
(isym
Cmd
p348
(dp349
g11
cforth
DROP
p350
sg2
(lp351
sg4
S'cmd'
p352
sg6
(dp353
sg16
g347
sbsS'-'
p354
(isym
Cmd
p355
(dp356
g11
g35
sg2
(lp357
sg4
S'cmd'
p358
sg6
(dp359
sg16
g32
sbsS'/'
p360
(isym
Cmd
p361
(dp362
g11
g265
sg2
(lp363
sg4
S'cmd'
p364
sg6
(dp365
sg16
g262
sbsS'.STORE'
p366
(isym
Cmd
p367
(dp368
g11
cforth
pSTORE
p369
sg2
(lp370
sg4
S'cmd'
p371
sg6
(dp372
sg16
S'pSTORE'
p373
sbsS'STM32'
p374
(isym
Mcu
p375
(dp376
g2
(lp377
sg4
S'mcu'
p378
sg6
(dp379
Vuart
p380
(isym
Group
p381
(dp382
g2
(lp383
sg4
S'group'
p384
sg6
(dp385
VMX_USART2_UART_Init
p386
(isym
Fn
p387
(dp388
g2
(lp389
sg4
S'fn'
p390
sg6
(dp391
sg16
g386
sbsVMX_USART1_UART_Init
p392
(isym
Fn
p393
(dp394
g2
(lp395
sg4
S'fn'
p396
sg6
(dp397
sg16
g392
sbsVMX_USART3_UART_Init
p398
(isym
Fn
p399
(dp400
g2
(lp401
sg4
S'fn'
p402
sg6
(dp403
sg16
g398
sbssg16
g380
sbsVSTM32F0
p404
(isym
Mcu
p405
(dp406
g2
(lp407
sg4
S'mcu'
p408
sg6
(dp409
sg16
g404
sbsVSTM32L0
p410
(isym
Mcu
p411
(dp412
g2
(lp413
sg4
S'mcu'
p414
sg6
(dp415
sg16
g410
sbsVinit
p416
(isym
Symbol
p417
(dp418
g2
(lp419
sg4
S'symbol'
p420
sg6
(dp421
VMX_TIM4_Init
p422
(isym
Fn
p423
(dp424
g2
(lp425
sg4
S'fn'
p426
sg6
(dp427
sg16
g422
sbsVHAL_Init
p428
(isym
Fn
p429
(dp430
g2
(lp431
sg4
S'fn'
p432
sg6
(dp433
sg16
g428
sbsg392
g393
sVMX_RTC_Init
p434
(isym
Fn
p435
(dp436
g2
(lp437
sg4
S'fn'
p438
sg6
(dp439
sg16
g434
sbsg398
g399
sVSystemClock_Config
p440
(isym
Fn
p441
(dp442
g2
(lp443
sg4
S'fn'
p444
sg6
(dp445
sg16
g440
sbsVMX_IWDG_Init
p446
(isym
Fn
p447
(dp448
g2
(lp449
sg4
S'fn'
p450
sg6
(dp451
sg16
g446
sbsVMX_GPIO_Init
p452
(isym
Fn
p453
(dp454
g2
(lp455
sg4
S'fn'
p456
sg6
(dp457
sg16
g452
sbsg386
g387
sVmain
p458
(isym
Fn
p459
(dp460
g2
(lp461
sg4
S'fn'
p462
sg6
(dp463
sg16
g458
sbsVMX_ADC1_Init
p464
(isym
Fn
p465
(dp466
g2
(lp467
sg4
S'fn'
p468
sg6
(dp469
sg16
g464
sbssg16
g416
sbsVadc
p470
(isym
Group
p471
(dp472
g2
(lp473
sg4
S'group'
p474
sg6
(dp475
g464
g465
ssg16
g470
sbsVSTM32F4
p476
(isym
Mcu
p477
(dp478
g2
(lp479
sg4
S'mcu'
p480
sg6
(dp481
sg16
g476
sbsVgpio
p482
(isym
Group
p483
(dp484
g2
(lp485
sg4
S'group'
p486
sg6
(dp487
sg16
g482
sbsVarch
p488
(isym
Arch
p489
(dp490
g2
(lp491
sg4
S'arch'
p492
sg6
(dp493
sg16
S'arm'
p494
sbsVSTM32F1
p495
(isym
Mcu
p496
(dp497
g2
(lp498
sg4
S'mcu'
p499
sg6
(dp500
VSTM32F103
p501
(isym
Mcu
p502
(dp503
g2
(lp504
sg4
S'mcu'
p505
sg6
(dp506
VSTM32F103CBTx
p507
(isym
Mcu
p508
(dp509
g2
(lp510
sg4
S'mcu'
p511
sg6
(dp512
VFLASH
p513
(isym
Integer
p514
(dp515
g2
(lp516
sg4
S'integer'
p517
sg6
(dp518
Vunit
p519
(isym
Symbol
p520
(dp521
g2
(lp522
sg4
S'symbol'
p523
sg6
(dp524
sg16
VKb
p525
sbssg16
I128
sbsVRAM
p526
(isym
Integer
p527
(dp528
g2
(lp529
sg4
S'integer'
p530
sg6
(dp531
Vunit
p532
(isym
Symbol
p533
(dp534
g2
(lp535
sg4
S'symbol'
p536
sg6
(dp537
sg16
VKb
p538
sbssg16
I20
sbsVsuper
p539
g502
ssg16
g507
sbsVsuper
p540
g496
ssg16
g501
sbsVsuper
p541
(isym
Mcu
p542
(dp543
g2
(lp544
sg4
S'mcu'
p545
sg6
g379
sg16
S'STM32'
p546
sbssg16
g495
sbsVdsp
p547
(isym
Group
p548
(dp549
g2
(lp550
sg4
S'group'
p551
sg6
(dp552
g470
g471
ssg16
g547
sbssg16
g374
sbsS'NUM'
p553
(isym
Cmd
p554
(dp555
g11
cforth
NUM
p556
sg2
(lp557
sg4
S'cmd'
p558
sg6
(dp559
sg16
g553
sbsS'SWAP'
p560
(isym
Cmd
p561
(dp562
g11
cforth
SWAP
p563
sg2
(lp564
sg4
S'cmd'
p565
sg6
(dp566
sg16
g560
sbsS'WORDS'
p567
(isym
Cmd
p568
(dp569
g11
cforth
WORDS
p570
sg2
(lp571
sg4
S'cmd'
p572
sg6
(dp573
sg16
g567
sbsS'PRESS'
p574
(isym
Cmd
p575
(dp576
g11
cforth
PRESS
p577
sg2
(lp578
sg4
S'cmd'
p579
sg6
(dp580
sg16
g574
sbsS'.FETCH'
p581
(isym
Cmd
p582
(dp583
g11
cforth
pFETCH
p584
sg2
(lp585
sg4
S'cmd'
p586
sg6
(dp587
sg16
S'pFETCH'
p588
sbsS'TAN'
p589
(isym
Cmd
p590
(dp591
g11
cforth
TAN
p592
sg2
(lp593
sg4
S'cmd'
p594
sg6
(dp595
sg16
g589
sbsS'AXIS'
p596
(isym
Cmd
p597
(dp598
g11
cforth
AXIS
p599
sg2
(lp600
sg4
S'cmd'
p601
sg6
(dp602
sg16
g596
sbsS'STACK'
p603
(isym
Cmd
p604
(dp605
g11
cforth
STACK
p606
sg2
(lp607
sg4
S'cmd'
p608
sg6
(dp609
sg16
g603
sbsS'?'
p610
(isym
Cmd
p611
(dp612
g11
cforth
q
p613
sg2
(lp614
sg4
S'cmd'
p615
sg6
(dp616
sg16
S'q'
p617
sbsS'LOAD'
p618
(isym
Cmd
p619
(dp620
g11
cforth
LOAD
p621
sg2
(lp622
sg4
S'cmd'
p623
sg6
(dp624
sg16
g618
sbsS'@'
p625
(isym
Cmd
p626
(dp627
g11
g584
sg2
(lp628
sg4
S'cmd'
p629
sg6
(dp630
sg16
g588
sbsS'VECTOR'
p631
(isym
Cmd
p632
(dp633
g11
cforth
VECTOR
p634
sg2
(lp635
sg4
S'cmd'
p636
sg6
(dp637
sg16
g631
sbsS'.LOAD'
p638
(isym
Cmd
p639
(dp640
g11
cforth
pLOAD
p641
sg2
(lp642
sg4
S'cmd'
p643
sg6
(dp644
sg16
S'pLOAD'
p645
sbsS'E'
p646
(isym
Number
p647
(dp648
g2
(lp649
sg4
S'number'
p650
sg6
(dp651
sg16
F2.718281828459045
sbsS'x86'
p652
(isym
Arch
p653
(dp654
g2
(lp655
sg4
S'arch'
p656
sg6
(dp657
sg16
g652
sbsS'URL'
p658
(isym
Cmd
p659
(dp660
g11
cforth
URL
p661
sg2
(lp662
sg4
S'cmd'
p663
sg6
(dp664
sg16
g658
sbsS'CPU'
p665
(isym
Cmd
p666
(dp667
g11
cforth
CPU
p668
sg2
(lp669
sg4
S'cmd'
p670
sg6
(dp671
sg16
g665
sbsg507
g508
sS'VM'
p672
(iforth
FORTH
p673
(dp674
g2
(lp675
sg4
S'forth'
p676
sg6
g7
sg16
S'vm'
p677
sbsS'SYNTAX'
p678
(isym
Cmd
p679
(dp680
g11
cforth
SYNTAX
p681
sg2
(lp682
sg4
S'cmd'
p683
sg6
(dp684
sg16
g678
sbsg346
(isym
Cmd
p685
(dp686
g11
g342
sg2
(lp687
sg4
S'cmd'
p688
sg6
(dp689
sg16
g346
sbsS'!'
p690
(isym
Cmd
p691
(dp692
g11
g369
sg2
(lp693
sg4
S'cmd'
p694
sg6
(dp695
sg16
g373
sbsS'plan'
p696
(ipps
Plan
p697
(dp698
g2
(lp699
sg4
S'plan'
p700
sg6
(dp701
sg16
g696
sbsS'.POP'
p702
(isym
Cmd
p703
(dp704
g11
cforth
pPOP
p705
sg2
(lp706
sg4
S'cmd'
p707
sg6
(dp708
sg16
S'pPOP'
p709
sbsS'DUP'
p710
(isym
Cmd
p711
(dp712
g11
cforth
DUP
p713
sg2
(lp714
sg4
S'cmd'
p715
sg6
(dp716
sg16
g710
sbsS'mips'
p717
(isym
Arch
p718
(dp719
g2
(lp720
sg4
S'arch'
p721
sg6
(dp722
sg16
g717
sbsS'BYE'
p723
(isym
Cmd
p724
(dp725
g11
cforth
BYE
p726
sg2
(lp727
sg4
S'cmd'
p728
sg6
(dp729
sg16
g723
sbsS'%'
p730
(isym
Cmd
p731
(dp732
g11
cforth
MOD
p733
sg2
(lp734
sg4
S'cmd'
p735
sg6
(dp736
sg16
S'MOD'
p737
sbsS'.PUSH'
p738
(isym
Cmd
p739
(dp740
g11
cforth
pPUSH
p741
sg2
(lp742
sg4
S'cmd'
p743
sg6
(dp744
sg16
S'pPUSH'
p745
sbsS'LANG'
p746
(isym
Cmd
p747
(dp748
g11
cforth
LANG
p749
sg2
(lp750
sg4
S'cmd'
p751
sg6
(dp752
sg16
g746
sbsS'FIND'
p753
(isym
Cmd
p754
(dp755
g11
cforth
FIND
p756
sg2
(lp757
sg4
S'cmd'
p758
sg6
(dp759
sg16
g753
sbsS'MAP'
p760
(isym
Cmd
p761
(dp762
g11
cforth
MAP
p763
sg2
(lp764
sg4
S'cmd'
p765
sg6
(dp766
sg16
g760
sbsS'PI'
p767
(isym
Number
p768
(dp769
g2
(lp770
sg4
S'number'
p771
sg6
(dp772
sg16
F3.141592653589793
sbsS'.DEL'
p773
(isym
Cmd
p774
(dp775
g11
cforth
pDEL
p776
sg2
(lp777
sg4
S'cmd'
p778
sg6
(dp779
sg16
S'pDEL'
p780
sbsS'INT'
p781
(isym
Cmd
p782
(dp783
g11
cforth
INT
p784
sg2
(lp785
sg4
S'cmd'
p786
sg6
(dp787
sg16
g781
sbsS'//'
p788
(isym
Cmd
p789
(dp790
g11
g741
sg2
(lp791
sg4
S'cmd'
p792
sg6
(dp793
sg16
g745
sbsg140
g141
sS'FROG'
p794
(isym
Cmd
p795
(dp796
g11
cforth
FROG
p797
sg2
(lp798
sg4
S'cmd'
p799
sg6
(dp800
sg16
g794
sbsg276
(isym
Cmd
p801
(dp802
g11
g272
sg2
(lp803
sg4
S'cmd'
p804
sg6
(dp805
sg16
g276
sbsS'INHER'
p806
(isym
Cmd
p807
(dp808
g11
cforth
INHER
p809
sg2
(lp810
sg4
S'cmd'
p811
sg6
(dp812
sg16
g806
sbsS'MCU'
p813
(isym
Cmd
p814
(dp815
g11
cforth
MCU
p816
sg2
(lp817
sg4
S'cmd'
p818
sg6
(dp819
sg16
g813
sbsS'SAVE'
p820
(isym
Cmd
p821
(dp822
g11
cforth
SAVE
p823
sg2
(lp824
sg4
S'cmd'
p825
sg6
(dp826
sg16
g820
sbsS'OS'
p827
(isym
Cmd
p828
(dp829
g11
cforth
OS
p830
sg2
(lp831
sg4
S'cmd'
p832
sg6
(dp833
sg16
g827
sbsS'COMPILER'
p834
(isym
Cmd
p835
(dp836
g11
cforth
COMPILER
p837
sg2
(lp838
sg4
S'cmd'
p839
sg6
(dp840
sg16
g834
sbsS'INTERPRET'
p841
(isym
Cmd
p842
(dp843
g11
cforth
INTERPRET
p844
sg2
(lp845
sg4
S'cmd'
p846
sg6
(dp847
sg16
g841
sbsg737
(isym
Cmd
p848
(dp849
g11
g733
sg2
(lp850
sg4
S'cmd'
p851
sg6
(dp852
sg16
g737
sbssg16
S'vm'
p853
sb.