(iforth
FORTH
p0
(dp1
S'nest'
p2
(lp3
sS'type'
p4
S'forth'
p5
sS'attr'
p6
(dp7
S'AXIS'
p8
(isym
Cmd
p9
(dp10
S'fn'
p11
cforth
AXIS
p12
sg2
(lp13
sg4
S'cmd'
p14
sg6
(dp15
sS'value'
p16
g8
sbsS'COS'
p17
(isym
Cmd
p18
(dp19
g11
cforth
COS
p20
sg2
(lp21
sg4
S'cmd'
p22
sg6
(dp23
sg16
g17
sbsS'DROP'
p24
(isym
Cmd
p25
(dp26
g11
cforth
DROP
p27
sg2
(lp28
sg4
S'cmd'
p29
sg6
(dp30
sg16
g24
sbsS'GROUP'
p31
(isym
Cmd
p32
(dp33
g11
cforth
GROUP
p34
sg2
(lp35
sg4
S'cmd'
p36
sg6
(dp37
sg16
g31
sbsS'SUB'
p38
(isym
Cmd
p39
(dp40
g11
cforth
SUB
p41
sg2
(lp42
sg4
S'cmd'
p43
sg6
(dp44
sg16
g38
sbsS'@'
p45
(isym
Cmd
p46
(dp47
g11
cforth
pFETCH
p48
sg2
(lp49
sg4
S'cmd'
p50
sg6
(dp51
sg16
S'pFETCH'
p52
sbsS'OVER'
p53
(isym
Cmd
p54
(dp55
g11
cforth
OVER
p56
sg2
(lp57
sg4
S'cmd'
p58
sg6
(dp59
sg16
g53
sbsS'EXECUTE'
p60
(isym
Cmd
p61
(dp62
g11
cforth
EXECUTE
p63
sg2
(lp64
sg4
S'cmd'
p65
sg6
(dp66
sg16
g60
sbsS'VECTOR'
p67
(isym
Cmd
p68
(dp69
g11
cforth
VECTOR
p70
sg2
(lp71
sg4
S'cmd'
p72
sg6
(dp73
sg16
g67
sbsVvendi
p74
(isym
Priv
p75
(dp76
g2
(lp77
sg4
S'priv'
p78
sg6
(dp79
sg16
g74
sbsS'FROG'
p80
(isym
Cmd
p81
(dp82
g11
cforth
FROG
p83
sg2
(lp84
sg4
S'cmd'
p85
sg6
(dp86
sg16
g80
sbsS'mips'
p87
(isym
Arch
p88
(dp89
g2
(lp90
sg4
S'arch'
p91
sg6
(dp92
sg16
g87
sbsS'.SAVE'
p93
(isym
Cmd
p94
(dp95
g11
cforth
pSAVE
p96
sg2
(lp97
sg4
S'cmd'
p98
sg6
(dp99
sg16
S'pSAVE'
p100
sbsS'MUL'
p101
(isym
Cmd
p102
(dp103
g11
cforth
MUL
p104
sg2
(lp105
sg4
S'cmd'
p106
sg6
(dp107
sg16
g101
sbsS'DIV'
p108
(isym
Cmd
p109
(dp110
g11
cforth
DIV
p111
sg2
(lp112
sg4
S'cmd'
p113
sg6
(dp114
sg16
g108
sbsS'.STORE'
p115
(isym
Cmd
p116
(dp117
g11
cforth
pSTORE
p118
sg2
(lp119
sg4
S'cmd'
p120
sg6
(dp121
sg16
S'pSTORE'
p122
sbsS'ARCH'
p123
(isym
Cmd
p124
(dp125
g11
cforth
ARCH
p126
sg2
(lp127
sg4
S'cmd'
p128
sg6
(dp129
sg16
g123
sbsS'SIN'
p130
(isym
Cmd
p131
(dp132
g11
cforth
SIN
p133
sg2
(lp134
sg4
S'cmd'
p135
sg6
(dp136
sg16
g130
sbsS'FN'
p137
(isym
Cmd
p138
(dp139
g11
cforth
FN
p140
sg2
(lp141
sg4
S'cmd'
p142
sg6
(dp143
sg16
g137
sbsS'.SLOT'
p144
(isym
Cmd
p145
(dp146
g11
cforth
pSLOT
p147
sg2
(lp148
sg4
S'cmd'
p149
sg6
(dp150
sg16
S'pSLOT'
p151
sbsS'.DROP'
p152
(isym
Cmd
p153
(dp154
g11
cforth
pDROP
p155
sg2
(lp156
sg4
S'cmd'
p157
sg6
(dp158
sg16
S'pDROP'
p159
sbsS'TASK'
p160
(isym
Cmd
p161
(dp162
g11
cforth
TASK
p163
sg2
(lp164
sg4
S'cmd'
p165
sg6
(dp166
sg16
g160
sbsS'%'
p167
(isym
Cmd
p168
(dp169
g11
cforth
MOD
p170
sg2
(lp171
sg4
S'cmd'
p172
sg6
(dp173
sg16
S'MOD'
p174
sbsS'$'
p175
(isym
Cmd
p176
(dp177
g11
g147
sg2
(lp178
sg4
S'cmd'
p179
sg6
(dp180
sg16
g151
sbsS'PRIV'
p181
(isym
Cmd
p182
(dp183
g11
cforth
PRIV
p184
sg2
(lp185
sg4
S'cmd'
p186
sg6
(dp187
sg16
g181
sbsS'POW'
p188
(isym
Cmd
p189
(dp190
g11
cforth
POW
p191
sg2
(lp192
sg4
S'cmd'
p193
sg6
(dp194
sg16
g188
sbsS'+'
p195
(isym
Cmd
p196
(dp197
g11
cforth
ADD
p198
sg2
(lp199
sg4
S'cmd'
p200
sg6
(dp201
sg16
S'ADD'
p202
sbsS'*'
p203
(isym
Cmd
p204
(dp205
g11
g104
sg2
(lp206
sg4
S'cmd'
p207
sg6
(dp208
sg16
g101
sbsS'-'
p209
(isym
Cmd
p210
(dp211
g11
g41
sg2
(lp212
sg4
S'cmd'
p213
sg6
(dp214
sg16
g38
sbsS'/'
p215
(isym
Cmd
p216
(dp217
g11
g111
sg2
(lp218
sg4
S'cmd'
p219
sg6
(dp220
sg16
g108
sbsS'.'
p221
(isym
Cmd
p222
(dp223
g11
cforth
DROPALL
p224
sg2
(lp225
sg4
S'cmd'
p226
sg6
(dp227
sg16
S'DROPALL'
p228
sbsS'STM32'
p229
(isym
Mcu
p230
(dp231
g2
(lp232
sg4
S'mcu'
p233
sg6
(dp234
sg16
g229
sbsS'NUM'
p235
(isym
Cmd
p236
(dp237
g11
cforth
NUM
p238
sg2
(lp239
sg4
S'cmd'
p240
sg6
(dp241
sg16
g235
sbsS'SWAP'
p242
(isym
Cmd
p243
(dp244
g11
cforth
SWAP
p245
sg2
(lp246
sg4
S'cmd'
p247
sg6
(dp248
sg16
g242
sbsS'WORDS'
p249
(isym
Cmd
p250
(dp251
g11
cforth
WORDS
p252
sg2
(lp253
sg4
S'cmd'
p254
sg6
(dp255
sg16
g249
sbsS'PRESS'
p256
(isym
Cmd
p257
(dp258
g11
cforth
PRESS
p259
sg2
(lp260
sg4
S'cmd'
p261
sg6
(dp262
sg16
g256
sbsS'TAN'
p263
(isym
Cmd
p264
(dp265
g11
cforth
TAN
p266
sg2
(lp267
sg4
S'cmd'
p268
sg6
(dp269
sg16
g263
sbsS'PI'
p270
(isym
Number
p271
(dp272
g2
(lp273
sg4
S'number'
p274
sg6
(dp275
sg16
F3.141592653589793
sbsS'STACK'
p276
(isym
Cmd
p277
(dp278
g11
cforth
STACK
p279
sg2
(lp280
sg4
S'cmd'
p281
sg6
(dp282
sg16
g276
sbsS'?'
p283
(isym
Cmd
p284
(dp285
g11
cforth
q
p286
sg2
(lp287
sg4
S'cmd'
p288
sg6
(dp289
sg16
S'q'
p290
sbsS'LOAD'
p291
(isym
Cmd
p292
(dp293
g11
cforth
LOAD
p294
sg2
(lp295
sg4
S'cmd'
p296
sg6
(dp297
sg16
g291
sbsS'//'
p298
(isym
Cmd
p299
(dp300
g11
cforth
pPUSH
p301
sg2
(lp302
sg4
S'cmd'
p303
sg6
(dp304
sg16
S'pPUSH'
p305
sbsS'.LOAD'
p306
(isym
Cmd
p307
(dp308
g11
cforth
pLOAD
p309
sg2
(lp310
sg4
S'cmd'
p311
sg6
(dp312
sg16
S'pLOAD'
p313
sbsS'E'
p314
(isym
Number
p315
(dp316
g2
(lp317
sg4
S'number'
p318
sg6
(dp319
sg16
F2.718281828459045
sbsS'x86'
p320
(isym
Arch
p321
(dp322
g2
(lp323
sg4
S'arch'
p324
sg6
(dp325
sg16
g320
sbsS'URL'
p326
(isym
Cmd
p327
(dp328
g11
cforth
URL
p329
sg2
(lp330
sg4
S'cmd'
p331
sg6
(dp332
sg16
g326
sbsS'CPU'
p333
(isym
Cmd
p334
(dp335
g11
cforth
CPU
p336
sg2
(lp337
sg4
S'cmd'
p338
sg6
(dp339
sg16
g333
sbsS'.PUSH'
p340
(isym
Cmd
p341
(dp342
g11
g301
sg2
(lp343
sg4
S'cmd'
p344
sg6
(dp345
sg16
g305
sbsS'VM'
p346
g0
sS'arm'
p347
(isym
Arch
p348
(dp349
g2
(lp350
sg4
S'arch'
p351
sg6
(dp352
sg16
g347
sbsS'SYNTAX'
p353
(isym
Cmd
p354
(dp355
g11
cforth
SYNTAX
p356
sg2
(lp357
sg4
S'cmd'
p358
sg6
(dp359
sg16
g353
sbsg202
(isym
Cmd
p360
(dp361
g11
g198
sg2
(lp362
sg4
S'cmd'
p363
sg6
(dp364
sg16
g202
sbsS'!'
p365
(isym
Cmd
p366
(dp367
g11
g118
sg2
(lp368
sg4
S'cmd'
p369
sg6
(dp370
sg16
g122
sbsS'plan'
p371
(ipps
Plan
p372
(dp373
g2
(lp374
sg4
S'plan'
p375
sg6
(dp376
sg16
g371
sbsS'.POP'
p377
(isym
Cmd
p378
(dp379
g11
cforth
pPOP
p380
sg2
(lp381
sg4
S'cmd'
p382
sg6
(dp383
sg16
S'pPOP'
p384
sbsS'DUP'
p385
(isym
Cmd
p386
(dp387
g11
cforth
DUP
p388
sg2
(lp389
sg4
S'cmd'
p390
sg6
(dp391
sg16
g385
sbsS'WORD'
p392
(isym
Cmd
p393
(dp394
g11
cforth
WORD
p395
sg2
(lp396
sg4
S'cmd'
p397
sg6
(dp398
sg16
g392
sbsS'BYE'
p399
(isym
Cmd
p400
(dp401
g11
cforth
BYE
p402
sg2
(lp403
sg4
S'cmd'
p404
sg6
(dp405
sg16
g399
sbsS'LANG'
p406
(isym
Cmd
p407
(dp408
g11
cforth
LANG
p409
sg2
(lp410
sg4
S'cmd'
p411
sg6
(dp412
sg16
g406
sbsS'SLON'
p413
(isym
Cmd
p414
(dp415
g11
cforth
SLON
p416
sg2
(lp417
sg4
S'cmd'
p418
sg6
(dp419
sg16
g413
sbsS'^'
p420
(isym
Cmd
p421
(dp422
g11
g191
sg2
(lp423
sg4
S'cmd'
p424
sg6
(dp425
sg16
g188
sbsS'FIND'
p426
(isym
Cmd
p427
(dp428
g11
cforth
FIND
p429
sg2
(lp430
sg4
S'cmd'
p431
sg6
(dp432
sg16
g426
sbsS'MAP'
p433
(isym
Cmd
p434
(dp435
g11
cforth
MAP
p436
sg2
(lp437
sg4
S'cmd'
p438
sg6
(dp439
sg16
g433
sbsS'.DEL'
p440
(isym
Cmd
p441
(dp442
g11
cforth
pDEL
p443
sg2
(lp444
sg4
S'cmd'
p445
sg6
(dp446
sg16
S'pDEL'
p447
sbsS'INT'
p448
(isym
Cmd
p449
(dp450
g11
cforth
INT
p451
sg2
(lp452
sg4
S'cmd'
p453
sg6
(dp454
sg16
g448
sbsS'OS'
p455
(isym
Cmd
p456
(dp457
g11
cforth
OS
p458
sg2
(lp459
sg4
S'cmd'
p460
sg6
(dp461
sg16
g455
sbsS'SQRT'
p462
(isym
Cmd
p463
(dp464
g11
cforth
SQRT
p465
sg2
(lp466
sg4
S'cmd'
p467
sg6
(dp468
sg16
g462
sbsg228
(isym
Cmd
p469
(dp470
g11
g224
sg2
(lp471
sg4
S'cmd'
p472
sg6
(dp473
sg16
g228
sbsS'INHER'
p474
(isym
Cmd
p475
(dp476
g11
cforth
INHER
p477
sg2
(lp478
sg4
S'cmd'
p479
sg6
(dp480
sg16
g474
sbsS'MCU'
p481
(isym
Cmd
p482
(dp483
g11
cforth
MCU
p484
sg2
(lp485
sg4
S'cmd'
p486
sg6
(dp487
sg16
g481
sbsS'SAVE'
p488
(isym
Cmd
p489
(dp490
g11
cforth
SAVE
p491
sg2
(lp492
sg4
S'cmd'
p493
sg6
(dp494
sg16
g488
sbsS'.FETCH'
p495
(isym
Cmd
p496
(dp497
g11
g48
sg2
(lp498
sg4
S'cmd'
p499
sg6
(dp500
sg16
g52
sbsS'COMPILER'
p501
(isym
Cmd
p502
(dp503
g11
cforth
COMPILER
p504
sg2
(lp505
sg4
S'cmd'
p506
sg6
(dp507
sg16
g501
sbsS'INTERPRET'
p508
(isym
Cmd
p509
(dp510
g11
cforth
INTERPRET
p511
sg2
(lp512
sg4
S'cmd'
p513
sg6
(dp514
sg16
g508
sbsg174
(isym
Cmd
p515
(dp516
g11
g170
sg2
(lp517
sg4
S'cmd'
p518
sg6
(dp519
sg16
g174
sbssg16
S'vm'
p520
sb.