(iforth
FORTH
p0
(dp1
S'nest'
p2
(lp3
sS'type'
p4
S'forth'
p5
sS'attr'
p6
(dp7
S'AXIS'
p8
(isym
Cmd
p9
(dp10
S'fn'
p11
cforth
AXIS
p12
sg2
(lp13
sg4
S'cmd'
p14
sg6
(dp15
sS'value'
p16
g8
sbsS'COS'
p17
(isym
Cmd
p18
(dp19
g11
cforth
COS
p20
sg2
(lp21
sg4
S'cmd'
p22
sg6
(dp23
sg16
g17
sbsS'DROP'
p24
(isym
Cmd
p25
(dp26
g11
cforth
DROP
p27
sg2
(lp28
sg4
S'cmd'
p29
sg6
(dp30
sg16
g24
sbsS'GROUP'
p31
(isym
Cmd
p32
(dp33
g11
cforth
GROUP
p34
sg2
(lp35
sg4
S'cmd'
p36
sg6
(dp37
sg16
g31
sbsS'SUB'
p38
(isym
Cmd
p39
(dp40
g11
cforth
SUB
p41
sg2
(lp42
sg4
S'cmd'
p43
sg6
(dp44
sg16
g38
sbsS'@'
p45
(isym
Cmd
p46
(dp47
g11
cforth
pFETCH
p48
sg2
(lp49
sg4
S'cmd'
p50
sg6
(dp51
sg16
S'pFETCH'
p52
sbsS'OVER'
p53
(isym
Cmd
p54
(dp55
g11
cforth
OVER
p56
sg2
(lp57
sg4
S'cmd'
p58
sg6
(dp59
sg16
g53
sbsS'EXECUTE'
p60
(isym
Cmd
p61
(dp62
g11
cforth
EXECUTE
p63
sg2
(lp64
sg4
S'cmd'
p65
sg6
(dp66
sg16
g60
sbsS'arm'
p67
(isym
Arch
p68
(dp69
g2
(lp70
sg4
S'arch'
p71
sg6
(dp72
sg16
g67
sbsVMETA
p73
(isym
Group
p74
(dp75
g2
(lp76
sg4
S'group'
p77
sg6
(dp78
VPython
p79
(isym
Lang
p80
(dp81
g2
(lp82
sg4
S'lang'
p83
sg6
(dp84
sg16
g79
sbsVC89
p85
(isym
Lang
p86
(dp87
g2
(lp88
sg4
S'lang'
p89
sg6
(dp90
VCpp
p91
(isym
Lang
p92
(dp93
g2
(lp94
sg4
S'lang'
p95
sg6
(dp96
sg16
g91
sbssg16
g85
sbsVLLVM
p97
(isym
Compiler
p98
(dp99
g2
(lp100
sg4
S'compiler'
p101
sg6
(dp102
sg16
g97
sbsVGo
p103
(isym
Lang
p104
(dp105
g2
(lp106
sg4
S'lang'
p107
sg6
(dp108
sg16
g103
sbsVweb
p109
(isym
Group
p110
(dp111
g2
(lp112
sg4
S'group'
p113
sg6
(dp114
VJSON
p115
(isym
Lang
p116
(dp117
g2
(lp118
sg4
S'lang'
p119
sg6
(dp120
sg16
g115
sbsVHTML
p121
(isym
Lang
p122
(dp123
g2
(lp124
sg4
S'lang'
p125
sg6
(dp126
sg16
g121
sbsVCSS
p127
(isym
Lang
p128
(dp129
g2
(lp130
sg4
S'lang'
p131
sg6
(dp132
sg16
g127
sbsVJS
p133
(isym
Lang
p134
(dp135
g2
(lp136
sg4
S'lang'
p137
sg6
(dp138
sg16
g133
sbssg16
g109
sbssg16
g73
sbsS'FROG'
p139
(isym
Cmd
p140
(dp141
g11
cforth
FROG
p142
sg2
(lp143
sg4
S'cmd'
p144
sg6
(dp145
sg16
g139
sbsS'mips'
p146
(isym
Arch
p147
(dp148
g2
(lp149
sg4
S'arch'
p150
sg6
(dp151
sg16
g146
sbsS'.SAVE'
p152
(isym
Cmd
p153
(dp154
g11
cforth
pSAVE
p155
sg2
(lp156
sg4
S'cmd'
p157
sg6
(dp158
sg16
S'pSAVE'
p159
sbsS'MUL'
p160
(isym
Cmd
p161
(dp162
g11
cforth
MUL
p163
sg2
(lp164
sg4
S'cmd'
p165
sg6
(dp166
sg16
g160
sbsS'DIV'
p167
(isym
Cmd
p168
(dp169
g11
cforth
DIV
p170
sg2
(lp171
sg4
S'cmd'
p172
sg6
(dp173
sg16
g167
sbsS'.STORE'
p174
(isym
Cmd
p175
(dp176
g11
cforth
pSTORE
p177
sg2
(lp178
sg4
S'cmd'
p179
sg6
(dp180
sg16
S'pSTORE'
p181
sbsS'ARCH'
p182
(isym
Cmd
p183
(dp184
g11
cforth
ARCH
p185
sg2
(lp186
sg4
S'cmd'
p187
sg6
(dp188
sg16
g182
sbsS'SIN'
p189
(isym
Cmd
p190
(dp191
g11
cforth
SIN
p192
sg2
(lp193
sg4
S'cmd'
p194
sg6
(dp195
sg16
g189
sbsS'FN'
p196
(isym
Cmd
p197
(dp198
g11
cforth
FN
p199
sg2
(lp200
sg4
S'cmd'
p201
sg6
(dp202
sg16
g196
sbsS'.SLOT'
p203
(isym
Cmd
p204
(dp205
g11
cforth
pSLOT
p206
sg2
(lp207
sg4
S'cmd'
p208
sg6
(dp209
sg16
S'pSLOT'
p210
sbsS'.DROP'
p211
(isym
Cmd
p212
(dp213
g11
cforth
pDROP
p214
sg2
(lp215
sg4
S'cmd'
p216
sg6
(dp217
sg16
S'pDROP'
p218
sbsS'TASK'
p219
(isym
Cmd
p220
(dp221
g11
cforth
TASK
p222
sg2
(lp223
sg4
S'cmd'
p224
sg6
(dp225
sg16
g219
sbsS'%'
p226
(isym
Cmd
p227
(dp228
g11
cforth
MOD
p229
sg2
(lp230
sg4
S'cmd'
p231
sg6
(dp232
sg16
S'MOD'
p233
sbsS'$'
p234
(isym
Cmd
p235
(dp236
g11
g206
sg2
(lp237
sg4
S'cmd'
p238
sg6
(dp239
sg16
g210
sbsS'POW'
p240
(isym
Cmd
p241
(dp242
g11
cforth
POW
p243
sg2
(lp244
sg4
S'cmd'
p245
sg6
(dp246
sg16
g240
sbsS'+'
p247
(isym
Cmd
p248
(dp249
g11
cforth
ADD
p250
sg2
(lp251
sg4
S'cmd'
p252
sg6
(dp253
sg16
S'ADD'
p254
sbsS'*'
p255
(isym
Cmd
p256
(dp257
g11
g163
sg2
(lp258
sg4
S'cmd'
p259
sg6
(dp260
sg16
g160
sbsS'-'
p261
(isym
Cmd
p262
(dp263
g11
g41
sg2
(lp264
sg4
S'cmd'
p265
sg6
(dp266
sg16
g38
sbsS'/'
p267
(isym
Cmd
p268
(dp269
g11
g170
sg2
(lp270
sg4
S'cmd'
p271
sg6
(dp272
sg16
g167
sbsS'.'
p273
(isym
Cmd
p274
(dp275
g11
cforth
DROPALL
p276
sg2
(lp277
sg4
S'cmd'
p278
sg6
(dp279
sg16
S'DROPALL'
p280
sbsS'STM32'
p281
(isym
Mcu
p282
(dp283
g2
(lp284
sg4
S'mcu'
p285
sg6
(dp286
Vuart
p287
(isym
Group
p288
(dp289
g2
(lp290
sg4
S'group'
p291
sg6
(dp292
VMX_USART2_UART_Init
p293
(isym
Fn
p294
(dp295
g2
(lp296
sg4
S'fn'
p297
sg6
(dp298
sg16
g293
sbsVMX_USART1_UART_Init
p299
(isym
Fn
p300
(dp301
g2
(lp302
sg4
S'fn'
p303
sg6
(dp304
sg16
g299
sbsVMX_USART3_UART_Init
p305
(isym
Fn
p306
(dp307
g2
(lp308
sg4
S'fn'
p309
sg6
(dp310
sg16
g305
sbssg16
g287
sbsVarch
p311
(isym
Arch
p312
(dp313
g2
(lp314
sg4
S'arch'
p315
sg6
(dp316
sg16
S'arm'
p317
sbsVSTM32L0
p318
(isym
Mcu
p319
(dp320
g2
(lp321
sg4
S'mcu'
p322
sg6
(dp323
sg16
g318
sbsVinit
p324
(isym
Symbol
p325
(dp326
g2
(lp327
sg4
S'symbol'
p328
sg6
(dp329
VMX_TIM4_Init
p330
(isym
Fn
p331
(dp332
g2
(lp333
sg4
S'fn'
p334
sg6
(dp335
sg16
g330
sbsVHAL_Init
p336
(isym
Fn
p337
(dp338
g2
(lp339
sg4
S'fn'
p340
sg6
(dp341
sg16
g336
sbsg299
g300
sVMX_RTC_Init
p342
(isym
Fn
p343
(dp344
g2
(lp345
sg4
S'fn'
p346
sg6
(dp347
sg16
g342
sbsg305
g306
sVMX_ADC1_Init
p348
(isym
Fn
p349
(dp350
g2
(lp351
sg4
S'fn'
p352
sg6
(dp353
sg16
g348
sbsVMX_IWDG_Init
p354
(isym
Fn
p355
(dp356
g2
(lp357
sg4
S'fn'
p358
sg6
(dp359
sg16
g354
sbsVMX_GPIO_Init
p360
(isym
Fn
p361
(dp362
g2
(lp363
sg4
S'fn'
p364
sg6
(dp365
sg16
g360
sbsg293
g294
sVmain
p366
(isym
Fn
p367
(dp368
g2
(lp369
sg4
S'fn'
p370
sg6
(dp371
sg16
g366
sbsVSystemClock_Config
p372
(isym
Fn
p373
(dp374
g2
(lp375
sg4
S'fn'
p376
sg6
(dp377
sg16
g372
sbssg16
g324
sbsVadc
p378
(isym
Group
p379
(dp380
g2
(lp381
sg4
S'group'
p382
sg6
(dp383
g348
g349
ssg16
g378
sbsVSTM32F4
p384
(isym
Mcu
p385
(dp386
g2
(lp387
sg4
S'mcu'
p388
sg6
(dp389
sg16
g384
sbsVgpio
p390
(isym
Group
p391
(dp392
g2
(lp393
sg4
S'group'
p394
sg6
(dp395
sg16
g390
sbsVSTM32F0
p396
(isym
Mcu
p397
(dp398
g2
(lp399
sg4
S'mcu'
p400
sg6
(dp401
sg16
g396
sbsVSTM32F1
p402
(isym
Mcu
p403
(dp404
g2
(lp405
sg4
S'mcu'
p406
sg6
(dp407
VSTM32F103
p408
(isym
Mcu
p409
(dp410
g2
(lp411
sg4
S'mcu'
p412
sg6
(dp413
VSTM32F103CBTx
p414
(isym
Mcu
p415
(dp416
g2
(lp417
sg4
S'mcu'
p418
sg6
(dp419
VFLASH
p420
(isym
Integer
p421
(dp422
g2
(lp423
sg4
S'integer'
p424
sg6
(dp425
Vunit
p426
(isym
Symbol
p427
(dp428
g2
(lp429
sg4
S'symbol'
p430
sg6
(dp431
sg16
VKb
p432
sbssg16
I128
sbsVRAM
p433
(isym
Integer
p434
(dp435
g2
(lp436
sg4
S'integer'
p437
sg6
(dp438
Vunit
p439
(isym
Symbol
p440
(dp441
g2
(lp442
sg4
S'symbol'
p443
sg6
(dp444
sg16
VKb
p445
sbssg16
I20
sbsVsuper
p446
g409
ssg16
g414
sbsVsuper
p447
g403
ssg16
g408
sbsVsuper
p448
(isym
Mcu
p449
(dp450
g2
(lp451
sg4
S'mcu'
p452
sg6
g286
sg16
S'STM32'
p453
sbssg16
g402
sbsVdsp
p454
(isym
Group
p455
(dp456
g2
(lp457
sg4
S'group'
p458
sg6
(dp459
g378
g379
ssg16
g454
sbssg16
g281
sbsg414
g415
sS'NUM'
p460
(isym
Cmd
p461
(dp462
g11
cforth
NUM
p463
sg2
(lp464
sg4
S'cmd'
p465
sg6
(dp466
sg16
g460
sbsS'SWAP'
p467
(isym
Cmd
p468
(dp469
g11
cforth
SWAP
p470
sg2
(lp471
sg4
S'cmd'
p472
sg6
(dp473
sg16
g467
sbsS'WORDS'
p474
(isym
Cmd
p475
(dp476
g11
cforth
WORDS
p477
sg2
(lp478
sg4
S'cmd'
p479
sg6
(dp480
sg16
g474
sbsS'PRESS'
p481
(isym
Cmd
p482
(dp483
g11
cforth
PRESS
p484
sg2
(lp485
sg4
S'cmd'
p486
sg6
(dp487
sg16
g481
sbsS'TAN'
p488
(isym
Cmd
p489
(dp490
g11
cforth
TAN
p491
sg2
(lp492
sg4
S'cmd'
p493
sg6
(dp494
sg16
g488
sbsS'PI'
p495
(isym
Number
p496
(dp497
g2
(lp498
sg4
S'number'
p499
sg6
(dp500
sg16
F3.141592653589793
sbsS'STACK'
p501
(isym
Cmd
p502
(dp503
g11
cforth
STACK
p504
sg2
(lp505
sg4
S'cmd'
p506
sg6
(dp507
sg16
g501
sbsS'?'
p508
(isym
Cmd
p509
(dp510
g11
cforth
q
p511
sg2
(lp512
sg4
S'cmd'
p513
sg6
(dp514
sg16
S'q'
p515
sbsS'LOAD'
p516
(isym
Cmd
p517
(dp518
g11
cforth
LOAD
p519
sg2
(lp520
sg4
S'cmd'
p521
sg6
(dp522
sg16
g516
sbsS'//'
p523
(isym
Cmd
p524
(dp525
g11
cforth
pPUSH
p526
sg2
(lp527
sg4
S'cmd'
p528
sg6
(dp529
sg16
S'pPUSH'
p530
sbsS'VECTOR'
p531
(isym
Cmd
p532
(dp533
g11
cforth
VECTOR
p534
sg2
(lp535
sg4
S'cmd'
p536
sg6
(dp537
sg16
g531
sbsS'.LOAD'
p538
(isym
Cmd
p539
(dp540
g11
cforth
pLOAD
p541
sg2
(lp542
sg4
S'cmd'
p543
sg6
(dp544
sg16
S'pLOAD'
p545
sbsS'E'
p546
(isym
Number
p547
(dp548
g2
(lp549
sg4
S'number'
p550
sg6
(dp551
sg16
F2.718281828459045
sbsS'x86'
p552
(isym
Arch
p553
(dp554
g2
(lp555
sg4
S'arch'
p556
sg6
(dp557
sg16
g552
sbsS'URL'
p558
(isym
Cmd
p559
(dp560
g11
cforth
URL
p561
sg2
(lp562
sg4
S'cmd'
p563
sg6
(dp564
sg16
g558
sbsS'CPU'
p565
(isym
Cmd
p566
(dp567
g11
cforth
CPU
p568
sg2
(lp569
sg4
S'cmd'
p570
sg6
(dp571
sg16
g565
sbsS'.PUSH'
p572
(isym
Cmd
p573
(dp574
g11
g526
sg2
(lp575
sg4
S'cmd'
p576
sg6
(dp577
sg16
g530
sbsS'VM'
p578
g0
sS'SYNTAX'
p579
(isym
Cmd
p580
(dp581
g11
cforth
SYNTAX
p582
sg2
(lp583
sg4
S'cmd'
p584
sg6
(dp585
sg16
g579
sbsg254
(isym
Cmd
p586
(dp587
g11
g250
sg2
(lp588
sg4
S'cmd'
p589
sg6
(dp590
sg16
g254
sbsS'!'
p591
(isym
Cmd
p592
(dp593
g11
g177
sg2
(lp594
sg4
S'cmd'
p595
sg6
(dp596
sg16
g181
sbsS'plan'
p597
(ipps
Plan
p598
(dp599
g2
(lp600
sg4
S'plan'
p601
sg6
(dp602
sg16
g597
sbsS'.POP'
p603
(isym
Cmd
p604
(dp605
g11
cforth
pPOP
p606
sg2
(lp607
sg4
S'cmd'
p608
sg6
(dp609
sg16
S'pPOP'
p610
sbsS'DUP'
p611
(isym
Cmd
p612
(dp613
g11
cforth
DUP
p614
sg2
(lp615
sg4
S'cmd'
p616
sg6
(dp617
sg16
g611
sbsS'WORD'
p618
(isym
Cmd
p619
(dp620
g11
cforth
WORD
p621
sg2
(lp622
sg4
S'cmd'
p623
sg6
(dp624
sg16
g618
sbsS'BYE'
p625
(isym
Cmd
p626
(dp627
g11
cforth
BYE
p628
sg2
(lp629
sg4
S'cmd'
p630
sg6
(dp631
sg16
g625
sbsS'LANG'
p632
(isym
Cmd
p633
(dp634
g11
cforth
LANG
p635
sg2
(lp636
sg4
S'cmd'
p637
sg6
(dp638
sg16
g632
sbsS'SLON'
p639
(isym
Cmd
p640
(dp641
g11
cforth
SLON
p642
sg2
(lp643
sg4
S'cmd'
p644
sg6
(dp645
sg16
g639
sbsS'^'
p646
(isym
Cmd
p647
(dp648
g11
g243
sg2
(lp649
sg4
S'cmd'
p650
sg6
(dp651
sg16
g240
sbsS'FIND'
p652
(isym
Cmd
p653
(dp654
g11
cforth
FIND
p655
sg2
(lp656
sg4
S'cmd'
p657
sg6
(dp658
sg16
g652
sbsS'MAP'
p659
(isym
Cmd
p660
(dp661
g11
cforth
MAP
p662
sg2
(lp663
sg4
S'cmd'
p664
sg6
(dp665
sg16
g659
sbsS'.DEL'
p666
(isym
Cmd
p667
(dp668
g11
cforth
pDEL
p669
sg2
(lp670
sg4
S'cmd'
p671
sg6
(dp672
sg16
S'pDEL'
p673
sbsS'INT'
p674
(isym
Cmd
p675
(dp676
g11
cforth
INT
p677
sg2
(lp678
sg4
S'cmd'
p679
sg6
(dp680
sg16
g674
sbsS'OS'
p681
(isym
Cmd
p682
(dp683
g11
cforth
OS
p684
sg2
(lp685
sg4
S'cmd'
p686
sg6
(dp687
sg16
g681
sbsS'SQRT'
p688
(isym
Cmd
p689
(dp690
g11
cforth
SQRT
p691
sg2
(lp692
sg4
S'cmd'
p693
sg6
(dp694
sg16
g688
sbsg280
(isym
Cmd
p695
(dp696
g11
g276
sg2
(lp697
sg4
S'cmd'
p698
sg6
(dp699
sg16
g280
sbsS'INHER'
p700
(isym
Cmd
p701
(dp702
g11
cforth
INHER
p703
sg2
(lp704
sg4
S'cmd'
p705
sg6
(dp706
sg16
g700
sbsS'MCU'
p707
(isym
Cmd
p708
(dp709
g11
cforth
MCU
p710
sg2
(lp711
sg4
S'cmd'
p712
sg6
(dp713
sg16
g707
sbsS'SAVE'
p714
(isym
Cmd
p715
(dp716
g11
cforth
SAVE
p717
sg2
(lp718
sg4
S'cmd'
p719
sg6
(dp720
sg16
g714
sbsS'.FETCH'
p721
(isym
Cmd
p722
(dp723
g11
g48
sg2
(lp724
sg4
S'cmd'
p725
sg6
(dp726
sg16
g52
sbsS'COMPILER'
p727
(isym
Cmd
p728
(dp729
g11
cforth
COMPILER
p730
sg2
(lp731
sg4
S'cmd'
p732
sg6
(dp733
sg16
g727
sbsS'INTERPRET'
p734
(isym
Cmd
p735
(dp736
g11
cforth
INTERPRET
p737
sg2
(lp738
sg4
S'cmd'
p739
sg6
(dp740
sg16
g734
sbsg233
(isym
Cmd
p741
(dp742
g11
g229
sg2
(lp743
sg4
S'cmd'
p744
sg6
(dp745
sg16
g233
sbssg16
S'vm'
p746
sb.