(iforth
FORTH
p0
(dp1
S'nest'
p2
(lp3
sS'type'
p4
S'forth'
p5
sS'attr'
p6
(dp7
S'OS'
p8
(isym
Cmd
p9
(dp10
S'fn'
p11
cforth
OS
p12
sg2
(lp13
sg4
S'cmd'
p14
sg6
(dp15
sS'value'
p16
g8
sbsS'COS'
p17
(isym
Cmd
p18
(dp19
g11
cforth
COS
p20
sg2
(lp21
sg4
S'cmd'
p22
sg6
(dp23
sg16
g17
sbsS'DROP'
p24
(isym
Cmd
p25
(dp26
g11
cforth
DROP
p27
sg2
(lp28
sg4
S'cmd'
p29
sg6
(dp30
sg16
g24
sbsS'GROUP'
p31
(isym
Cmd
p32
(dp33
g11
cforth
GROUP
p34
sg2
(lp35
sg4
S'cmd'
p36
sg6
(dp37
sg16
g31
sbsS'SUB'
p38
(isym
Cmd
p39
(dp40
g11
cforth
SUB
p41
sg2
(lp42
sg4
S'cmd'
p43
sg6
(dp44
sg16
g38
sbsS'SAVE'
p45
(isym
Cmd
p46
(dp47
g11
cforth
SAVE
p48
sg2
(lp49
sg4
S'cmd'
p50
sg6
(dp51
sg16
g45
sbsS'OVER'
p52
(isym
Cmd
p53
(dp54
g11
cforth
OVER
p55
sg2
(lp56
sg4
S'cmd'
p57
sg6
(dp58
sg16
g52
sbsS'EXECUTE'
p59
(isym
Cmd
p60
(dp61
g11
cforth
EXECUTE
p62
sg2
(lp63
sg4
S'cmd'
p64
sg6
(dp65
sg16
g59
sbsS'arm'
p66
(isym
Arch
p67
(dp68
g2
(lp69
sg4
S'arch'
p70
sg6
(dp71
sg16
g66
sbsVMETA
p72
(isym
Group
p73
(dp74
g2
(lp75
sg4
S'group'
p76
sg6
(dp77
Vweb
p78
(isym
Group
p79
(dp80
g2
(lp81
sg4
S'group'
p82
sg6
(dp83
VJSON
p84
(isym
Lang
p85
(dp86
g2
(lp87
sg4
S'lang'
p88
sg6
(dp89
sg16
g84
sbsVHTML
p90
(isym
Lang
p91
(dp92
g2
(lp93
sg4
S'lang'
p94
sg6
(dp95
sg16
g90
sbsVCSS
p96
(isym
Lang
p97
(dp98
g2
(lp99
sg4
S'lang'
p100
sg6
(dp101
sg16
g96
sbsVJS
p102
(isym
Lang
p103
(dp104
g2
(lp105
sg4
S'lang'
p106
sg6
(dp107
sg16
g102
sbssg16
g78
sbsVLLVM
p108
(isym
Compiler
p109
(dp110
g2
(lp111
sg4
S'compiler'
p112
sg6
(dp113
sg16
g108
sbsVPython
p114
(isym
Lang
p115
(dp116
g2
(lp117
sg4
S'lang'
p118
sg6
(dp119
sg16
g114
sbsVC89
p120
(isym
Lang
p121
(dp122
g2
(lp123
sg4
S'lang'
p124
sg6
(dp125
VCpp
p126
(isym
Lang
p127
(dp128
g2
(lp129
sg4
S'lang'
p130
sg6
(dp131
sg16
g126
sbssg16
g120
sbsVGo
p132
(isym
Lang
p133
(dp134
g2
(lp135
sg4
S'lang'
p136
sg6
(dp137
sg16
g132
sbsVFORTH
p138
(isym
Lang
p139
(dp140
g2
(lp141
sg4
S'lang'
p142
sg6
(dp143
Vdoc
p144
(isym
Group
p145
(dp146
g2
(lp147
sg4
S'group'
p148
sg6
(dp149
VDPANS94
p150
(isym
Url
p151
(dp152
g2
(lp153
sg4
S'url'
p154
sg6
(dp155
sg16
Vhttp://lars.nocrew.org/dpans/dpans.htm
p156
sbssg16
g144
sbsVcross
p157
(isym
Group
p158
(dp159
g2
(lp160
(isym
Url
p161
(dp162
g2
(lp163
sg4
S'url'
p164
sg6
(dp165
sg16
Vhttp://www.forth.com/downloads/ANS/XCpaper.pdf
p166
sba(isym
Url
p167
(dp168
g2
(lp169
sg4
S'url'
p170
sg6
(dp171
sg16
Vhttp://www.forth.com/downloads/ANS/XCapp5.pdf
p172
sbasg4
S'group'
p173
sg6
(dp174
sg16
g157
sbssg16
g138
sbssg16
g72
sbsS'FROG'
p175
(isym
Cmd
p176
(dp177
g11
cforth
FROG
p178
sg2
(lp179
sg4
S'cmd'
p180
sg6
(dp181
sg16
g175
sbsS'mips'
p182
(isym
Arch
p183
(dp184
g2
(lp185
sg4
S'arch'
p186
sg6
(dp187
sg16
g182
sbsS'.SAVE'
p188
(isym
Cmd
p189
(dp190
g11
cforth
pSAVE
p191
sg2
(lp192
sg4
S'cmd'
p193
sg6
(dp194
sg16
S'pSAVE'
p195
sbsS'MUL'
p196
(isym
Cmd
p197
(dp198
g11
cforth
MUL
p199
sg2
(lp200
sg4
S'cmd'
p201
sg6
(dp202
sg16
g196
sbsS'DIV'
p203
(isym
Cmd
p204
(dp205
g11
cforth
DIV
p206
sg2
(lp207
sg4
S'cmd'
p208
sg6
(dp209
sg16
g203
sbsS'.STORE'
p210
(isym
Cmd
p211
(dp212
g11
cforth
pSTORE
p213
sg2
(lp214
sg4
S'cmd'
p215
sg6
(dp216
sg16
S'pSTORE'
p217
sbsS'ARCH'
p218
(isym
Cmd
p219
(dp220
g11
cforth
ARCH
p221
sg2
(lp222
sg4
S'cmd'
p223
sg6
(dp224
sg16
g218
sbsS'SIN'
p225
(isym
Cmd
p226
(dp227
g11
cforth
SIN
p228
sg2
(lp229
sg4
S'cmd'
p230
sg6
(dp231
sg16
g225
sbsS'FN'
p232
(isym
Cmd
p233
(dp234
g11
cforth
FN
p235
sg2
(lp236
sg4
S'cmd'
p237
sg6
(dp238
sg16
g232
sbsS'.SLOT'
p239
(isym
Cmd
p240
(dp241
g11
cforth
pSLOT
p242
sg2
(lp243
sg4
S'cmd'
p244
sg6
(dp245
sg16
S'pSLOT'
p246
sbsS'.DROP'
p247
(isym
Cmd
p248
(dp249
g11
cforth
pDROP
p250
sg2
(lp251
sg4
S'cmd'
p252
sg6
(dp253
sg16
S'pDROP'
p254
sbsS'TASK'
p255
(isym
Cmd
p256
(dp257
g11
cforth
TASK
p258
sg2
(lp259
sg4
S'cmd'
p260
sg6
(dp261
sg16
g255
sbsS'WORD'
p262
(isym
Cmd
p263
(dp264
g11
cforth
WORD
p265
sg2
(lp266
sg4
S'cmd'
p267
sg6
(dp268
sg16
g262
sbsS'$'
p269
(isym
Cmd
p270
(dp271
g11
g242
sg2
(lp272
sg4
S'cmd'
p273
sg6
(dp274
sg16
g246
sbsS'POW'
p275
(isym
Cmd
p276
(dp277
g11
cforth
POW
p278
sg2
(lp279
sg4
S'cmd'
p280
sg6
(dp281
sg16
g275
sbsS'+'
p282
(isym
Cmd
p283
(dp284
g11
cforth
ADD
p285
sg2
(lp286
sg4
S'cmd'
p287
sg6
(dp288
sg16
S'ADD'
p289
sbsS'*'
p290
(isym
Cmd
p291
(dp292
g11
g199
sg2
(lp293
sg4
S'cmd'
p294
sg6
(dp295
sg16
g196
sbsS'-'
p296
(isym
Cmd
p297
(dp298
g11
g41
sg2
(lp299
sg4
S'cmd'
p300
sg6
(dp301
sg16
g38
sbsS'/'
p302
(isym
Cmd
p303
(dp304
g11
g206
sg2
(lp305
sg4
S'cmd'
p306
sg6
(dp307
sg16
g203
sbsS'.'
p308
(isym
Cmd
p309
(dp310
g11
cforth
DROPALL
p311
sg2
(lp312
sg4
S'cmd'
p313
sg6
(dp314
sg16
S'DROPALL'
p315
sbsS'STM32'
p316
(isym
Mcu
p317
(dp318
g2
(lp319
sg4
S'mcu'
p320
sg6
(dp321
Vuart
p322
(isym
Group
p323
(dp324
g2
(lp325
sg4
S'group'
p326
sg6
(dp327
VMX_USART2_UART_Init
p328
(isym
Fn
p329
(dp330
g2
(lp331
sg4
S'fn'
p332
sg6
(dp333
sg16
g328
sbsVMX_USART1_UART_Init
p334
(isym
Fn
p335
(dp336
g2
(lp337
sg4
S'fn'
p338
sg6
(dp339
sg16
g334
sbsVMX_USART3_UART_Init
p340
(isym
Fn
p341
(dp342
g2
(lp343
sg4
S'fn'
p344
sg6
(dp345
sg16
g340
sbssg16
g322
sbsVarch
p346
(isym
Arch
p347
(dp348
g2
(lp349
sg4
S'arch'
p350
sg6
(dp351
sg16
S'arm'
p352
sbsVSTM32L0
p353
(isym
Mcu
p354
(dp355
g2
(lp356
sg4
S'mcu'
p357
sg6
(dp358
sg16
g353
sbsVinit
p359
(isym
Symbol
p360
(dp361
g2
(lp362
sg4
S'symbol'
p363
sg6
(dp364
VMX_TIM4_Init
p365
(isym
Fn
p366
(dp367
g2
(lp368
sg4
S'fn'
p369
sg6
(dp370
sg16
g365
sbsVHAL_Init
p371
(isym
Fn
p372
(dp373
g2
(lp374
sg4
S'fn'
p375
sg6
(dp376
sg16
g371
sbsg334
g335
sVMX_RTC_Init
p377
(isym
Fn
p378
(dp379
g2
(lp380
sg4
S'fn'
p381
sg6
(dp382
sg16
g377
sbsg340
g341
sVMX_ADC1_Init
p383
(isym
Fn
p384
(dp385
g2
(lp386
sg4
S'fn'
p387
sg6
(dp388
sg16
g383
sbsVMX_IWDG_Init
p389
(isym
Fn
p390
(dp391
g2
(lp392
sg4
S'fn'
p393
sg6
(dp394
sg16
g389
sbsVMX_GPIO_Init
p395
(isym
Fn
p396
(dp397
g2
(lp398
sg4
S'fn'
p399
sg6
(dp400
sg16
g395
sbsg328
g329
sVmain
p401
(isym
Fn
p402
(dp403
g2
(lp404
sg4
S'fn'
p405
sg6
(dp406
sg16
g401
sbsVSystemClock_Config
p407
(isym
Fn
p408
(dp409
g2
(lp410
sg4
S'fn'
p411
sg6
(dp412
sg16
g407
sbssg16
g359
sbsVadc
p413
(isym
Group
p414
(dp415
g2
(lp416
sg4
S'group'
p417
sg6
(dp418
g383
g384
ssg16
g413
sbsVSTM32F4
p419
(isym
Mcu
p420
(dp421
g2
(lp422
sg4
S'mcu'
p423
sg6
(dp424
sg16
g419
sbsVgpio
p425
(isym
Group
p426
(dp427
g2
(lp428
sg4
S'group'
p429
sg6
(dp430
sg16
g425
sbsVSTM32F0
p431
(isym
Mcu
p432
(dp433
g2
(lp434
sg4
S'mcu'
p435
sg6
(dp436
sg16
g431
sbsVSTM32F1
p437
(isym
Mcu
p438
(dp439
g2
(lp440
sg4
S'mcu'
p441
sg6
(dp442
VSTM32F103
p443
(isym
Mcu
p444
(dp445
g2
(lp446
sg4
S'mcu'
p447
sg6
(dp448
VSTM32F103CBTx
p449
(isym
Mcu
p450
(dp451
g2
(lp452
sg4
S'mcu'
p453
sg6
(dp454
Vsuper
p455
g444
sVRAM
p456
(isym
Integer
p457
(dp458
g2
(lp459
sg4
S'integer'
p460
sg6
(dp461
Vunit
p462
(isym
Symbol
p463
(dp464
g2
(lp465
sg4
S'symbol'
p466
sg6
(dp467
sg16
VKb
p468
sbssg16
I20
sbsVFLASH
p469
(isym
Integer
p470
(dp471
g2
(lp472
sg4
S'integer'
p473
sg6
(dp474
Vunit
p475
(isym
Symbol
p476
(dp477
g2
(lp478
sg4
S'symbol'
p479
sg6
(dp480
sg16
VKb
p481
sbssg16
I128
sbssg16
g449
sbsVsuper
p482
g438
ssg16
g443
sbsVsuper
p483
(isym
Mcu
p484
(dp485
g2
(lp486
sg4
S'mcu'
p487
sg6
g321
sg16
S'STM32'
p488
sbssg16
g437
sbsVdsp
p489
(isym
Group
p490
(dp491
g2
(lp492
sg4
S'group'
p493
sg6
(dp494
g413
g414
ssg16
g489
sbssg16
g316
sbsS'NUM'
p495
(isym
Cmd
p496
(dp497
g11
cforth
NUM
p498
sg2
(lp499
sg4
S'cmd'
p500
sg6
(dp501
sg16
g495
sbsS'SWAP'
p502
(isym
Cmd
p503
(dp504
g11
cforth
SWAP
p505
sg2
(lp506
sg4
S'cmd'
p507
sg6
(dp508
sg16
g502
sbsS'WORDS'
p509
(isym
Cmd
p510
(dp511
g11
cforth
WORDS
p512
sg2
(lp513
sg4
S'cmd'
p514
sg6
(dp515
sg16
g509
sbsS'PRESS'
p516
(isym
Cmd
p517
(dp518
g11
cforth
PRESS
p519
sg2
(lp520
sg4
S'cmd'
p521
sg6
(dp522
sg16
g516
sbsS'TAN'
p523
(isym
Cmd
p524
(dp525
g11
cforth
TAN
p526
sg2
(lp527
sg4
S'cmd'
p528
sg6
(dp529
sg16
g523
sbsS'AXIS'
p530
(isym
Cmd
p531
(dp532
g11
cforth
AXIS
p533
sg2
(lp534
sg4
S'cmd'
p535
sg6
(dp536
sg16
g530
sbsS'STACK'
p537
(isym
Cmd
p538
(dp539
g11
cforth
STACK
p540
sg2
(lp541
sg4
S'cmd'
p542
sg6
(dp543
sg16
g537
sbsS'?'
p544
(isym
Cmd
p545
(dp546
g11
cforth
q
p547
sg2
(lp548
sg4
S'cmd'
p549
sg6
(dp550
sg16
S'q'
p551
sbsS'LOAD'
p552
(isym
Cmd
p553
(dp554
g11
cforth
LOAD
p555
sg2
(lp556
sg4
S'cmd'
p557
sg6
(dp558
sg16
g552
sbsS'@'
p559
(isym
Cmd
p560
(dp561
g11
cforth
pFETCH
p562
sg2
(lp563
sg4
S'cmd'
p564
sg6
(dp565
sg16
S'pFETCH'
p566
sbsS'.LOAD'
p567
(isym
Cmd
p568
(dp569
g11
cforth
pLOAD
p570
sg2
(lp571
sg4
S'cmd'
p572
sg6
(dp573
sg16
S'pLOAD'
p574
sbsS'E'
p575
(isym
Number
p576
(dp577
g2
(lp578
sg4
S'number'
p579
sg6
(dp580
sg16
F2.718281828459045
sbsS'x86'
p581
(isym
Arch
p582
(dp583
g2
(lp584
sg4
S'arch'
p585
sg6
(dp586
sg16
g581
sbsS'URL'
p587
(isym
Cmd
p588
(dp589
g11
cforth
URL
p590
sg2
(lp591
sg4
S'cmd'
p592
sg6
(dp593
sg16
g587
sbsS'CPU'
p594
(isym
Cmd
p595
(dp596
g11
cforth
CPU
p597
sg2
(lp598
sg4
S'cmd'
p599
sg6
(dp600
sg16
g594
sbsg449
g450
sS'VM'
p601
(iforth
FORTH
p602
(dp603
g2
(lp604
sg4
S'forth'
p605
sg6
g7
sg16
S'vm'
p606
sbsS'SYNTAX'
p607
(isym
Cmd
p608
(dp609
g11
cforth
SYNTAX
p610
sg2
(lp611
sg4
S'cmd'
p612
sg6
(dp613
sg16
g607
sbsg289
(isym
Cmd
p614
(dp615
g11
g285
sg2
(lp616
sg4
S'cmd'
p617
sg6
(dp618
sg16
g289
sbsS'!'
p619
(isym
Cmd
p620
(dp621
g11
g213
sg2
(lp622
sg4
S'cmd'
p623
sg6
(dp624
sg16
g217
sbsS'plan'
p625
(ipps
Plan
p626
(dp627
g2
(lp628
sg4
S'plan'
p629
sg6
(dp630
sg16
g625
sbsS'.POP'
p631
(isym
Cmd
p632
(dp633
g11
cforth
pPOP
p634
sg2
(lp635
sg4
S'cmd'
p636
sg6
(dp637
sg16
S'pPOP'
p638
sbsS'DUP'
p639
(isym
Cmd
p640
(dp641
g11
cforth
DUP
p642
sg2
(lp643
sg4
S'cmd'
p644
sg6
(dp645
sg16
g639
sbsS'%'
p646
(isym
Cmd
p647
(dp648
g11
cforth
MOD
p649
sg2
(lp650
sg4
S'cmd'
p651
sg6
(dp652
sg16
S'MOD'
p653
sbsS'BYE'
p654
(isym
Cmd
p655
(dp656
g11
cforth
BYE
p657
sg2
(lp658
sg4
S'cmd'
p659
sg6
(dp660
sg16
g654
sbsS'LANG'
p661
(isym
Cmd
p662
(dp663
g11
cforth
LANG
p664
sg2
(lp665
sg4
S'cmd'
p666
sg6
(dp667
sg16
g661
sbsS'SLON'
p668
(isym
Cmd
p669
(dp670
g11
cforth
SLON
p671
sg2
(lp672
sg4
S'cmd'
p673
sg6
(dp674
sg16
g668
sbsS'.PUSH'
p675
(isym
Cmd
p676
(dp677
g11
cforth
pPUSH
p678
sg2
(lp679
sg4
S'cmd'
p680
sg6
(dp681
sg16
S'pPUSH'
p682
sbsS'^'
p683
(isym
Cmd
p684
(dp685
g11
g278
sg2
(lp686
sg4
S'cmd'
p687
sg6
(dp688
sg16
g275
sbsS'FIND'
p689
(isym
Cmd
p690
(dp691
g11
cforth
FIND
p692
sg2
(lp693
sg4
S'cmd'
p694
sg6
(dp695
sg16
g689
sbsS'MAP'
p696
(isym
Cmd
p697
(dp698
g11
cforth
MAP
p699
sg2
(lp700
sg4
S'cmd'
p701
sg6
(dp702
sg16
g696
sbsS'PI'
p703
(isym
Number
p704
(dp705
g2
(lp706
sg4
S'number'
p707
sg6
(dp708
sg16
F3.141592653589793
sbsS'.DEL'
p709
(isym
Cmd
p710
(dp711
g11
cforth
pDEL
p712
sg2
(lp713
sg4
S'cmd'
p714
sg6
(dp715
sg16
S'pDEL'
p716
sbsS'INT'
p717
(isym
Cmd
p718
(dp719
g11
cforth
INT
p720
sg2
(lp721
sg4
S'cmd'
p722
sg6
(dp723
sg16
g717
sbsS'//'
p724
(isym
Cmd
p725
(dp726
g11
g678
sg2
(lp727
sg4
S'cmd'
p728
sg6
(dp729
sg16
g682
sbsS'SQRT'
p730
(isym
Cmd
p731
(dp732
g11
cforth
SQRT
p733
sg2
(lp734
sg4
S'cmd'
p735
sg6
(dp736
sg16
g730
sbsg315
(isym
Cmd
p737
(dp738
g11
g311
sg2
(lp739
sg4
S'cmd'
p740
sg6
(dp741
sg16
g315
sbsS'INTERPRET'
p742
(isym
Cmd
p743
(dp744
g11
cforth
INTERPRET
p745
sg2
(lp746
sg4
S'cmd'
p747
sg6
(dp748
sg16
g742
sbsS'INHER'
p749
(isym
Cmd
p750
(dp751
g11
cforth
INHER
p752
sg2
(lp753
sg4
S'cmd'
p754
sg6
(dp755
sg16
g749
sbsS'MCU'
p756
(isym
Cmd
p757
(dp758
g11
cforth
MCU
p759
sg2
(lp760
sg4
S'cmd'
p761
sg6
(dp762
sg16
g756
sbsg138
g139
sS'.FETCH'
p763
(isym
Cmd
p764
(dp765
g11
g562
sg2
(lp766
sg4
S'cmd'
p767
sg6
(dp768
sg16
g566
sbsS'COMPILER'
p769
(isym
Cmd
p770
(dp771
g11
cforth
COMPILER
p772
sg2
(lp773
sg4
S'cmd'
p774
sg6
(dp775
sg16
g769
sbsS'VECTOR'
p776
(isym
Cmd
p777
(dp778
g11
cforth
VECTOR
p779
sg2
(lp780
sg4
S'cmd'
p781
sg6
(dp782
sg16
g776
sbsg653
(isym
Cmd
p783
(dp784
g11
g649
sg2
(lp785
sg4
S'cmd'
p786
sg6
(dp787
sg16
g653
sbssg16
S'vm'
p788
sb.