(iforth
FORTH
p0
(dp1
S'nest'
p2
(lp3
(ipps
Plan
p4
(dp5
g2
(lp6
sS'type'
p7
S'plan'
p8
sS'attr'
p9
(dp10
sS'value'
p11
S'plan'
p12
sbasg7
S'forth'
p13
sg9
(dp14
S'COS'
p15
(isym
Cmd
p16
(dp17
S'fn'
p18
cforth
COS
p19
sg2
(lp20
sg7
S'cmd'
p21
sg9
(dp22
sg11
g15
sbsS'DROP'
p23
(isym
Cmd
p24
(dp25
g18
cforth
DROP
p26
sg2
(lp27
sg7
S'cmd'
p28
sg9
(dp29
sg11
g23
sbsS'RSHIFT'
p30
(isym
Cmd
p31
(dp32
g18
cforth
RSHIFT
p33
sg2
(lp34
sg7
S'cmd'
p35
sg9
(dp36
sg11
g30
sbsS'SUB'
p37
(isym
Cmd
p38
(dp39
g18
cforth
SUB
p40
sg2
(lp41
sg7
S'cmd'
p42
sg9
(dp43
sg11
g37
sbsS'>>'
p44
(isym
Cmd
p45
(dp46
g18
g33
sg2
(lp47
sg7
S'cmd'
p48
sg9
(dp49
sg11
g30
sbsS'OVER'
p50
(isym
Cmd
p51
(dp52
g18
cforth
OVER
p53
sg2
(lp54
sg7
S'cmd'
p55
sg9
(dp56
sg11
g50
sbsS'EXECUTE'
p57
(isym
Cmd
p58
(dp59
g18
cforth
EXECUTE
p60
sg2
(lp61
sg7
S'cmd'
p62
sg9
(dp63
sg11
g57
sbsS'FROG'
p64
(isym
Cmd
p65
(dp66
g18
cforth
FROG
p67
sg2
(lp68
sg7
S'cmd'
p69
sg9
(dp70
sg11
g64
sbsS'LSHIFT'
p71
(isym
Cmd
p72
(dp73
g18
cforth
LSHIFT
p74
sg2
(lp75
sg7
S'cmd'
p76
sg9
(dp77
sg11
g71
sbsS'.SAVE'
p78
(isym
Cmd
p79
(dp80
g18
cforth
pSAVE
p81
sg2
(lp82
sg7
S'cmd'
p83
sg9
(dp84
sg11
S'pSAVE'
p85
sbsS'MUL'
p86
(isym
Cmd
p87
(dp88
g18
cforth
MUL
p89
sg2
(lp90
sg7
S'cmd'
p91
sg9
(dp92
sg11
g86
sbsS'DIV'
p93
(isym
Cmd
p94
(dp95
g18
cforth
DIV
p96
sg2
(lp97
sg7
S'cmd'
p98
sg9
(dp99
sg11
g93
sbsS'SIN'
p100
(isym
Cmd
p101
(dp102
g18
cforth
SIN
p103
sg2
(lp104
sg7
S'cmd'
p105
sg9
(dp106
sg11
g100
sbsS'.DEL'
p107
(isym
Cmd
p108
(dp109
g18
cforth
pDEL
p110
sg2
(lp111
sg7
S'cmd'
p112
sg9
(dp113
sg11
S'pDEL'
p114
sbsS'TASK'
p115
(isym
Cmd
p116
(dp117
g18
cforth
TASK
p118
sg2
(lp119
sg7
S'cmd'
p120
sg9
(dp121
sg11
g115
sbsS'%'
p122
(isym
Cmd
p123
(dp124
g18
cforth
MOD
p125
sg2
(lp126
sg7
S'cmd'
p127
sg9
(dp128
sg11
S'MOD'
p129
sbsS'POW'
p130
(isym
Cmd
p131
(dp132
g18
cforth
POW
p133
sg2
(lp134
sg7
S'cmd'
p135
sg9
(dp136
sg11
g130
sbsS'+'
p137
(isym
Cmd
p138
(dp139
g18
cforth
ADD
p140
sg2
(lp141
sg7
S'cmd'
p142
sg9
(dp143
sg11
S'ADD'
p144
sbsS'*'
p145
(isym
Cmd
p146
(dp147
g18
g89
sg2
(lp148
sg7
S'cmd'
p149
sg9
(dp150
sg11
g86
sbsS'-'
p151
(isym
Cmd
p152
(dp153
g18
g40
sg2
(lp154
sg7
S'cmd'
p155
sg9
(dp156
sg11
g37
sbsS'/'
p157
(isym
Cmd
p158
(dp159
g18
g96
sg2
(lp160
sg7
S'cmd'
p161
sg9
(dp162
sg11
g93
sbsS'.'
p163
(isym
Cmd
p164
(dp165
g18
cforth
DROPALL
p166
sg2
(lp167
sg7
S'cmd'
p168
sg9
(dp169
sg11
S'DROPALL'
p170
sbsS'NUM'
p171
(isym
Cmd
p172
(dp173
g18
cforth
NUM
p174
sg2
(lp175
sg7
S'cmd'
p176
sg9
(dp177
sg11
g171
sbsS'SWAP'
p178
(isym
Cmd
p179
(dp180
g18
cforth
SWAP
p181
sg2
(lp182
sg7
S'cmd'
p183
sg9
(dp184
sg11
g178
sbsS'WORDS'
p185
(isym
Cmd
p186
(dp187
g18
cforth
WORDS
p188
sg2
(lp189
sg7
S'cmd'
p190
sg9
(dp191
sg11
g185
sbsS'PRESS'
p192
(isym
Cmd
p193
(dp194
g18
cforth
PRESS
p195
sg2
(lp196
sg7
S'cmd'
p197
sg9
(dp198
sg11
g192
sbsS'TAN'
p199
(isym
Cmd
p200
(dp201
g18
cforth
TAN
p202
sg2
(lp203
sg7
S'cmd'
p204
sg9
(dp205
sg11
g199
sbsS'PI'
p206
(isym
Number
p207
(dp208
g2
(lp209
sg7
S'number'
p210
sg9
(dp211
sg11
F3.141592653589793
sbsS'STACK'
p212
(isym
Cmd
p213
(dp214
g18
cforth
STACK
p215
sg2
(lp216
sg7
S'cmd'
p217
sg9
(dp218
sg11
g212
sbsS'?'
p219
(isym
Cmd
p220
(dp221
g18
cforth
q
p222
sg2
(lp223
sg7
S'cmd'
p224
sg9
(dp225
sg11
S'q'
p226
sbsS'LOAD'
p227
(isym
Cmd
p228
(dp229
g18
cforth
LOAD
p230
sg2
(lp231
sg7
S'cmd'
p232
sg9
(dp233
sg11
g227
sbsS'//'
p234
(isym
Cmd
p235
(dp236
g18
cforth
pPUSH
p237
sg2
(lp238
sg7
S'cmd'
p239
sg9
(dp240
sg11
S'pPUSH'
p241
sbsS'VECTOR'
p242
(isym
Cmd
p243
(dp244
g18
cforth
VECTOR
p245
sg2
(lp246
sg7
S'cmd'
p247
sg9
(dp248
sg11
g242
sbsS'.LOAD'
p249
(isym
Cmd
p250
(dp251
g18
cforth
pLOAD
p252
sg2
(lp253
sg7
S'cmd'
p254
sg9
(dp255
sg11
S'pLOAD'
p256
sbsS'E'
p257
(isym
Number
p258
(dp259
g2
(lp260
sg7
S'number'
p261
sg9
(dp262
sg11
F2.718281828459045
sbsS'.PUSH'
p263
(isym
Cmd
p264
(dp265
g18
g237
sg2
(lp266
sg7
S'cmd'
p267
sg9
(dp268
sg11
g241
sbsS'VM'
p269
g0
sg144
(isym
Cmd
p270
(dp271
g18
g140
sg2
(lp272
sg7
S'cmd'
p273
sg9
(dp274
sg11
g144
sbsS'AXIS'
p275
(isym
Cmd
p276
(dp277
g18
cforth
AXIS
p278
sg2
(lp279
sg7
S'cmd'
p280
sg9
(dp281
sg11
g275
sbsg12
g4
sS'.POP'
p282
(isym
Cmd
p283
(dp284
g18
cforth
pPOP
p285
sg2
(lp286
sg7
S'cmd'
p287
sg9
(dp288
sg11
S'pPOP'
p289
sbsS'DUP'
p290
(isym
Cmd
p291
(dp292
g18
cforth
DUP
p293
sg2
(lp294
sg7
S'cmd'
p295
sg9
(dp296
sg11
g290
sbsS'WORD'
p297
(isym
Cmd
p298
(dp299
g18
cforth
WORD
p300
sg2
(lp301
sg7
S'cmd'
p302
sg9
(dp303
sg11
g297
sbsS'BYE'
p304
(isym
Cmd
p305
(dp306
g18
cforth
BYE
p307
sg2
(lp308
sg7
S'cmd'
p309
sg9
(dp310
sg11
g304
sbsS'SLON'
p311
(isym
Cmd
p312
(dp313
g18
cforth
SLON
p314
sg2
(lp315
sg7
S'cmd'
p316
sg9
(dp317
sg11
g311
sbsS'<<'
p318
(isym
Cmd
p319
(dp320
g18
g74
sg2
(lp321
sg7
S'cmd'
p322
sg9
(dp323
sg11
g71
sbsS'^'
p324
(isym
Cmd
p325
(dp326
g18
g133
sg2
(lp327
sg7
S'cmd'
p328
sg9
(dp329
sg11
g130
sbsS'FIND'
p330
(isym
Cmd
p331
(dp332
g18
cforth
FIND
p333
sg2
(lp334
sg7
S'cmd'
p335
sg9
(dp336
sg11
g330
sbsS'MAP'
p337
(isym
Cmd
p338
(dp339
g18
cforth
MAP
p340
sg2
(lp341
sg7
S'cmd'
p342
sg9
(dp343
sg11
g337
sbsS'INT'
p344
(isym
Cmd
p345
(dp346
g18
cforth
INT
p347
sg2
(lp348
sg7
S'cmd'
p349
sg9
(dp350
sg11
g344
sbsS'SQRT'
p351
(isym
Cmd
p352
(dp353
g18
cforth
SQRT
p354
sg2
(lp355
sg7
S'cmd'
p356
sg9
(dp357
sg11
g351
sbsg170
(isym
Cmd
p358
(dp359
g18
g166
sg2
(lp360
sg7
S'cmd'
p361
sg9
(dp362
sg11
g170
sbsS'SAVE'
p363
(isym
Cmd
p364
(dp365
g18
cforth
SAVE
p366
sg2
(lp367
sg7
S'cmd'
p368
sg9
(dp369
sg11
g363
sbsS'INTERPRET'
p370
(isym
Cmd
p371
(dp372
g18
cforth
INTERPRET
p373
sg2
(lp374
sg7
S'cmd'
p375
sg9
(dp376
sg11
g370
sbsg129
(isym
Cmd
p377
(dp378
g18
g125
sg2
(lp379
sg7
S'cmd'
p380
sg9
(dp381
sg11
g129
sbssg11
S'vm'
p382
sb.