(isym
Lang
p0
(dp1
S'nest'
p2
(lp3
sS'type'
p4
S'lang'
p5
sS'attr'
p6
(dp7
Vdoc
p8
(isym
Group
p9
(dp10
g2
(lp11
(isym
Url
p12
(dp13
g2
(lp14
sg4
S'url'
p15
sg6
(dp16
sS'value'
p17
Vhttp://www.forth200x.org/
p18
sbasg4
S'group'
p19
sg6
(dp20
VDPANS94
p21
(isym
Url
p22
(dp23
g2
(lp24
sg4
S'url'
p25
sg6
(dp26
sg17
Vhttp://lars.nocrew.org/dpans/dpans.htm
p27
sbsVhttp://gforth.org
p28
(isym
Symbol
p29
(dp30
g2
(lp31
sg4
S'symbol'
p32
sg6
(dp33
Vurl
p34
(isym
Url
p35
(dp36
g2
(lp37
sg4
S'url'
p38
sg6
(dp39
sg17
Vhttp://gforth.org
p40
sbsVdoc
p41
(isym
String
p42
(dp43
g2
(lp44
sg4
S'string'
p45
sg6
(dp46
sg17
VA free, fast, featureful and portable GNU implementation of the Forth 2012 language
p47
sbssg17
Vgforth
p48
sbssg17
g8
sbsg48
g29
sVcross
p49
(isym
Group
p50
(dp51
g2
(lp52
(isym
Url
p53
(dp54
g2
(lp55
sg4
S'url'
p56
sg6
(dp57
sg17
Vhttp://www.forth.com/downloads/ANS/XCpaper.pdf
p58
sba(isym
Url
p59
(dp60
g2
(lp61
sg4
S'url'
p62
sg6
(dp63
sg17
Vhttp://www.forth.com/downloads/ANS/XCapp5.pdf
p64
sba(isym
Url
p65
(dp66
g2
(lp67
sg4
S'url'
p68
sg6
(dp69
sg17
Vhttps://groups.google.com/forum/#!topic/comp.lang.forth/eYiPcW8uPRY
p70
sbasg4
S'group'
p71
sg6
(dp72
sg17
g49
sbsVpeople
p73
(isym
Group
p74
(dp75
g2
(lp76
sg4
S'group'
p77
sg6
(dp78
VDr.Cactus
p79
(isym
Symbol
p80
(dp81
g2
(lp82
(isym
Url
p83
(dp84
g2
(lp85
sg4
S'url'
p86
sg6
(dp87
sg17
Vhttp://www.forth.org.ru/~cactus/
p88
sbasg4
S'symbol'
p89
sg6
(dp90
Vemail
p91
(isym
String
p92
(dp93
g2
(lp94
sg4
S'string'
p95
sg6
(dp96
sg17
Vcactus@forth.org.ru
p97
sbssg17
g79
sbsVElizabethRather
p98
(isym
String
p99
(dp100
g2
(lp101
sg4
S'string'
p102
sg6
(dp103
sg17
VElizabeth D. Rather
p104
sbssg17
g73
sbssg17
VFORTH
p105
sb.