(isym
Lang
p0
(dp1
S'nest'
p2
(lp3
sS'type'
p4
S'lang'
p5
sS'attr'
p6
(dp7
Vdoc
p8
(isym
Group
p9
(dp10
g2
(lp11
sg4
S'group'
p12
sg6
(dp13
VDPANS94
p14
(isym
Url
p15
(dp16
g2
(lp17
sg4
S'url'
p18
sg6
(dp19
sS'value'
p20
Vhttp://lars.nocrew.org/dpans/dpans.htm
p21
sbssg20
g8
sbsVcross
p22
(isym
Group
p23
(dp24
g2
(lp25
(isym
Url
p26
(dp27
g2
(lp28
sg4
S'url'
p29
sg6
(dp30
sg20
Vhttp://www.forth.com/downloads/ANS/XCpaper.pdf
p31
sba(isym
Url
p32
(dp33
g2
(lp34
sg4
S'url'
p35
sg6
(dp36
sg20
Vhttp://www.forth.com/downloads/ANS/XCapp5.pdf
p37
sbasg4
S'group'
p38
sg6
(dp39
sg20
g22
sbssg20
VFORTH
p40
sb.