(isym
Lang
p0
(dp1
S'nest'
p2
(lp3
sS'type'
p4
S'lang'
p5
sS'attr'
p6
(dp7
Vdoc
p8
(isym
Group
p9
(dp10
g2
(lp11
(isym
Url
p12
(dp13
g2
(lp14
sg4
S'url'
p15
sg6
(dp16
sS'value'
p17
Vhttp://www.forth200x.org/
p18
sbasg4
S'group'
p19
sg6
(dp20
VDPANS94
p21
(isym
Url
p22
(dp23
g2
(lp24
sg4
S'url'
p25
sg6
(dp26
sg17
Vhttp://lars.nocrew.org/dpans/dpans.htm
p27
sbsVhttp://gforth.org
p28
(isym
Symbol
p29
(dp30
g2
(lp31
sg4
S'symbol'
p32
sg6
(dp33
Vurl
p34
(isym
Url
p35
(dp36
g2
(lp37
sg4
S'url'
p38
sg6
(dp39
sg17
Vhttp://gforth.org
p40
sbsVdoc
p41
(isym
String
p42
(dp43
g2
(lp44
sg4
S'string'
p45
sg6
(dp46
sg17
VA free, fast, featureful and portable GNU implementation of the Forth 2012 language
p47
sbssg17
Vgforth
p48
sbsVISO
p49
(isym
String
p50
(dp51
g2
(lp52
sg4
S'string'
p53
sg6
(dp54
sg17
VISO/IEC 15145:1997 Information technology. Programming languages. FORTH
p55
sbssg17
g8
sbsg48
g29
sVcross
p56
(isym
Group
p57
(dp58
g2
(lp59
(isym
Url
p60
(dp61
g2
(lp62
sg4
S'url'
p63
sg6
(dp64
sg17
Vhttp://www.forth.com/downloads/ANS/XCpaper.pdf
p65
sba(isym
Url
p66
(dp67
g2
(lp68
sg4
S'url'
p69
sg6
(dp70
sg17
Vhttp://www.forth.com/downloads/ANS/XCapp5.pdf
p71
sba(isym
Url
p72
(dp73
g2
(lp74
sg4
S'url'
p75
sg6
(dp76
sg17
Vhttps://groups.google.com/forum/#!topic/comp.lang.forth/eYiPcW8uPRY
p77
sbasg4
S'group'
p78
sg6
(dp79
sg17
g56
sbsVpeople
p80
(isym
Group
p81
(dp82
g2
(lp83
sg4
S'group'
p84
sg6
(dp85
VDr.Cactus
p86
(isym
Symbol
p87
(dp88
g2
(lp89
(isym
Url
p90
(dp91
g2
(lp92
sg4
S'url'
p93
sg6
(dp94
sg17
Vhttp://www.forth.org.ru/~cactus/
p95
sbasg4
S'symbol'
p96
sg6
(dp97
Vemail
p98
(isym
String
p99
(dp100
g2
(lp101
sg4
S'string'
p102
sg6
(dp103
sg17
Vcactus@forth.org.ru
p104
sbssg17
g86
sbsVElizabethRather
p105
(isym
String
p106
(dp107
g2
(lp108
sg4
S'string'
p109
sg6
(dp110
sg17
VElizabeth D. Rather
p111
sbssg17
g80
sbssg17
VFORTH
p112
sb.