(isym
Lang
p0
(dp1
S'nest'
p2
(lp3
sS'type'
p4
S'lang'
p5
sS'attr'
p6
(dp7
Vdoc
p8
(isym
Group
p9
(dp10
g2
(lp11
sg4
S'group'
p12
sg6
(dp13
VDPANS94
p14
(isym
Url
p15
(dp16
g2
(lp17
sg4
S'url'
p18
sg6
(dp19
sS'value'
p20
Vhttp://lars.nocrew.org/dpans/dpans.htm
p21
sbssg20
g8
sbsVcross
p22
(isym
Group
p23
(dp24
g2
(lp25
(isym
Url
p26
(dp27
g2
(lp28
sg4
S'url'
p29
sg6
(dp30
sg20
Vhttp://www.forth.com/downloads/ANS/XCpaper.pdf
p31
sba(isym
Url
p32
(dp33
g2
(lp34
sg4
S'url'
p35
sg6
(dp36
sg20
Vhttp://www.forth.com/downloads/ANS/XCapp5.pdf
p37
sba(isym
Url
p38
(dp39
g2
(lp40
sg4
S'url'
p41
sg6
(dp42
sg20
Vhttps://groups.google.com/forum/#!topic/comp.lang.forth/eYiPcW8uPRY
p43
sbasg4
S'group'
p44
sg6
(dp45
sg20
g22
sbsVpeople
p46
(isym
Group
p47
(dp48
g2
(lp49
sg4
S'group'
p50
sg6
(dp51
VDr.Cactus
p52
(isym
Symbol
p53
(dp54
g2
(lp55
(isym
Url
p56
(dp57
g2
(lp58
sg4
S'url'
p59
sg6
(dp60
sg20
Vhttp://www.forth.org.ru/~cactus/
p61
sbasg4
S'symbol'
p62
sg6
(dp63
Vemail
p64
(isym
String
p65
(dp66
g2
(lp67
sg4
S'string'
p68
sg6
(dp69
sg20
Vcactus@forth.org.ru
p70
sbssg20
g52
sbsVElizabethRather
p71
(isym
String
p72
(dp73
g2
(lp74
sg4
S'string'
p75
sg6
(dp76
sg20
VElizabeth D. Rather
p77
sbssg20
g46
sbssg20
VFORTH
p78
sb.