(isym
Group
p0
(dp1
S'nest'
p2
(lp3
sS'type'
p4
S'group'
p5
sS'attr'
p6
(dp7
Vforth
p8
(isym
Group
p9
(dp10
g2
(lp11
sg4
S'group'
p12
sg6
(dp13
Vthinking
p14
(isym
String
p15
(dp16
g2
(lp17
sg4
S'string'
p18
sg6
(dp19
Vurl
p20
(isym
Url
p21
(dp22
g2
(lp23
sg4
S'url'
p24
sg6
(dp25
sS'value'
p26
Vhttp://thinking-forth.sourceforge.net/
p27
sbsVtitle
p28
(isym
String
p29
(dp30
g2
(lp31
sg4
S'string'
p32
sg6
(dp33
sg26
VThinking FORTH: A Language and Philosophy for Solving Problems
p34
sbssg26
VThinking Forth
p35
sbsVstarting
p36
(isym
String
p37
(dp38
g2
(lp39
sg4
S'string'
p40
sg6
(dp41
Vurl
p42
(isym
Url
p43
(dp44
g2
(lp45
sg4
S'url'
p46
sg6
(dp47
sg26
Vhttps://www.forth.com/starting-forth/
p48
sbsVpdf
p49
(isym
Url
p50
(dp51
g2
(lp52
sg4
S'url'
p53
sg6
(dp54
sg26
Vhttps://1scyem2bunjw1ghzsf1cjwwn-wpengine.netdna-ssl.com/wp-content/uploads/2018/01/Starting-FORTH.pdf
p55
sbssg26
VStarting FORTH
p56
sbsVdpans
p57
(isym
Url
p58
(dp59
g2
(lp60
sg4
S'url'
p61
sg6
(dp62
sg26
Vhttp://lars.nocrew.org/dpans/dpans.htm
p63
sbssg26
g8
sbssg26
Vbook
p64
sb.