(dp0
Vcpu
p1
(isym
Group
p2
(dp3
S'nest'
p4
(lp5
sS'type'
p6
S'group'
p7
sS'attr'
p8
(dp9
Vcortex-m3
p10
(isym
Mcu
p11
(dp12
g4
(lp13
sg6
S'mcu'
p14
sg8
(dp15
sS'value'
p16
g10
sbsVi486
p17
(isym
Cpu
p18
(dp19
g4
(lp20
sg6
S'cpu'
p21
sg8
(dp22
sg16
g17
sbsVi686
p23
(isym
Cpu
p24
(dp25
g4
(lp26
sg6
S'cpu'
p27
sg8
(dp28
sg16
g23
sbssg16
g1
sbs.