(dp0
Vcpu
p1
(isym
Group
p2
(dp3
S'nest'
p4
(lp5
(isym
Mcu
p6
(dp7
g4
(lp8
sS'type'
p9
S'mcu'
p10
sS'attr'
p11
(dp12
sS'value'
p13
Vcortex-m3
p14
sba(isym
Cpu
p15
(dp16
g4
(lp17
sg9
S'cpu'
p18
sg11
(dp19
sg13
Vi486
p20
sba(isym
Cpu
p21
(dp22
g4
(lp23
sg9
S'cpu'
p24
sg11
(dp25
sg13
Vi686
p26
sbasg9
S'group'
p27
sg11
(dp28
sg13
g1
sbs.