(isym
Group
p0
(dp1
S'nest'
p2
(lp3
sS'type'
p4
S'group'
p5
sS'attr'
p6
(dp7
Vcpu
p8
(isym
Group
p9
(dp10
g2
(lp11
sg4
S'group'
p12
sg6
(dp13
Vcortex-m3
p14
(isym
Mcu
p15
(dp16
g2
(lp17
sg4
S'mcu'
p18
sg6
(dp19
sS'value'
p20
g14
sbsVi486
p21
(isym
Cpu
p22
(dp23
g2
(lp24
sg4
S'cpu'
p25
sg6
(dp26
sg20
g21
sbsVi686
p27
(isym
Cpu
p28
(dp29
g2
(lp30
sg4
S'cpu'
p31
sg6
(dp32
sg20
g27
sbssg20
g8
sbssg20
Vhwsw
p33
sb.