(isym
Group
p0
(dp1
S'nest'
p2
(lp3
sS'type'
p4
S'group'
p5
sS'attr'
p6
(dp7
Vcpu
p8
(isym
Group
p9
(dp10
g2
(lp11
(isym
Mcu
p12
(dp13
g2
(lp14
sg4
S'mcu'
p15
sg6
(dp16
sS'value'
p17
Vcortex-m3
p18
sba(isym
Cpu
p19
(dp20
g2
(lp21
sg4
S'cpu'
p22
sg6
(dp23
sg17
Vi486
p24
sba(isym
Cpu
p25
(dp26
g2
(lp27
sg4
S'cpu'
p28
sg6
(dp29
sg17
Vi686
p30
sbasg4
S'group'
p31
sg6
(dp32
sg17
g8
sbssg17
Vhwsw
p33
sb.