(isym
Group
p0
(dp1
S'nest'
p2
(lp3
sS'type'
p4
S'group'
p5
sS'attr'
p6
(dp7
VXML
p8
(isym
Lang
p9
(dp10
g2
(lp11
sg4
S'lang'
p12
sg6
(dp13
sS'value'
p14
g8
sbsVweb
p15
(isym
Group
p16
(dp17
g2
(lp18
sg4
S'group'
p19
sg6
(dp20
VJSON
p21
(isym
Lang
p22
(dp23
g2
(lp24
sg4
S'lang'
p25
sg6
(dp26
sg14
g21
sbsVHTML
p27
(isym
Lang
p28
(dp29
g2
(lp30
sg4
S'lang'
p31
sg6
(dp32
sg14
g27
sbsVCSS
p33
(isym
Lang
p34
(dp35
g2
(lp36
sg4
S'lang'
p37
sg6
(dp38
sg14
g33
sbsVJS
p39
(isym
Lang
p40
(dp41
g2
(lp42
sg4
S'lang'
p43
sg6
(dp44
sg14
g39
sbssg14
g15
sbsVLLVM
p45
(isym
Compiler
p46
(dp47
g2
(lp48
sg4
S'compiler'
p49
sg6
(dp50
VClang
p51
(isym
Compiler
p52
(dp53
g2
(lp54
sg4
S'compiler'
p55
sg6
(dp56
sg14
g51
sbssg14
g45
sbsVPython
p57
(isym
Lang
p58
(dp59
g2
(lp60
sg4
S'lang'
p61
sg6
(dp62
sg14
g57
sbsVC89
p63
(isym
Lang
p64
(dp65
g2
(lp66
sg4
S'lang'
p67
sg6
(dp68
VCpp
p69
(isym
Lang
p70
(dp71
g2
(lp72
sg4
S'lang'
p73
sg6
(dp74
sg14
g69
sbssg14
g63
sbsVGo
p75
(isym
Lang
p76
(dp77
g2
(lp78
sg4
S'lang'
p79
sg6
(dp80
sg14
g75
sbssg14
VMETA
p81
sb.