(isym
Group
p0
(dp1
S'nest'
p2
(lp3
sS'type'
p4
S'group'
p5
sS'attr'
p6
(dp7
VJSON
p8
(isym
Lang
p9
(dp10
g2
(lp11
sg4
S'lang'
p12
sg6
(dp13
sS'value'
p14
g8
sbsVHTML
p15
(isym
Lang
p16
(dp17
g2
(lp18
sg4
S'lang'
p19
sg6
(dp20
sg14
g15
sbsVCSS
p21
(isym
Lang
p22
(dp23
g2
(lp24
sg4
S'lang'
p25
sg6
(dp26
sg14
g21
sbsVJS
p27
(isym
Lang
p28
(dp29
g2
(lp30
sg4
S'lang'
p31
sg6
(dp32
sg14
g27
sbssg14
Vweb
p33
sb.