(dp0
VJSON
p1
(isym
Lang
p2
(dp3
S'nest'
p4
(lp5
sS'type'
p6
S'lang'
p7
sS'attr'
p8
(dp9
sS'value'
p10
g1
sbsVHTML
p11
(isym
Lang
p12
(dp13
g4
(lp14
sg6
S'lang'
p15
sg8
(dp16
sg10
g11
sbsVCSS
p17
(isym
Lang
p18
(dp19
g4
(lp20
sg6
S'lang'
p21
sg8
(dp22
sg10
g17
sbsVJS
p23
(isym
Lang
p24
(dp25
g4
(lp26
sg6
S'lang'
p27
sg8
(dp28
sg10
g23
sbs.