(isym
Group
p0
(dp1
S'nest'
p2
(lp3
sS'type'
p4
S'group'
p5
sS'attr'
p6
(dp7
VHTML
p8
(isym
Lang
p9
(dp10
g2
(lp11
sg4
S'lang'
p12
sg6
(dp13
sS'value'
p14
g8
sbsVCSS
p15
(isym
Lang
p16
(dp17
g2
(lp18
sg4
S'lang'
p19
sg6
(dp20
sg14
g15
sbsVJS
p21
(isym
Lang
p22
(dp23
g2
(lp24
sg4
S'lang'
p25
sg6
(dp26
sg14
g21
sbssg14
Vweb
p27
sb.