(isym
Mcu
p0
(dp1
S'nest'
p2
(lp3
sS'type'
p4
S'mcu'
p5
sS'attr'
p6
(dp7
VHAL
p8
(isym
Lib
p9
(dp10
g2
(lp11
sg4
S'lib'
p12
sg6
(dp13
sS'value'
p14
VSTM32HAL
p15
sbsVuart
p16
(isym
Group
p17
(dp18
g2
(lp19
sg4
S'group'
p20
sg6
(dp21
VMX_USART2_UART_Init
p22
(isym
Fn
p23
(dp24
g2
(lp25
sg4
S'fn'
p26
sg6
(dp27
sg14
g22
sbsVMX_USART3_UART_Init
p28
(isym
Fn
p29
(dp30
g2
(lp31
sg4
S'fn'
p32
sg6
(dp33
sg14
g28
sbsVreg
p34
(isym
Group
p35
(dp36
g2
(lp37
sg4
S'group'
p38
sg6
(dp39
VUSART_CR2
p40
(isym
Reg
p41
(dp42
g2
(lp43
sg4
S'reg'
p44
sg6
(dp45
Vdoc
p46
(isym
String
p47
(dp48
g2
(lp49
sg4
S'string'
p50
sg6
(dp51
sg14
Vcontrol register #2
p52
sbsVSTOP1
p53
(isym
Reg
p54
(dp55
g2
(lp56
sg4
S'reg'
p57
sg6
(dp58
Vbit
p59
(isym
Integer
p60
(dp61
g2
(lp62
sg4
S'integer'
p63
sg6
(dp64
sg14
I13
sbssg14
g53
sbsVSTOP0
p65
(isym
Reg
p66
(dp67
g2
(lp68
sg4
S'reg'
p69
sg6
(dp70
Vbit
p71
(isym
Integer
p72
(dp73
g2
(lp74
sg4
S'integer'
p75
sg6
(dp76
sg14
I12
sbssg14
g65
sbssg14
g40
sbsVUSART_DR
p77
(isym
Reg
p78
(dp79
g2
(lp80
sg4
S'reg'
p81
sg6
(dp82
Vdoc
p83
(isym
String
p84
(dp85
g2
(lp86
sg4
S'string'
p87
sg6
(dp88
sg14
VData Register
p89
sbssg14
g77
sbsVUSART_CR1
p90
(isym
Reg
p91
(dp92
g2
(lp93
sg4
S'reg'
p94
sg6
(dp95
VPS
p96
(isym
Reg
p97
(dp98
g2
(lp99
sg4
S'reg'
p100
sg6
(dp101
Vdoc
p102
(isym
String
p103
(dp104
g2
(lp105
sg4
S'string'
p106
sg6
(dp107
sg14
VEven/Od parity
p108
sbsVbit
p109
(isym
Integer
p110
(dp111
g2
(lp112
sg4
S'integer'
p113
sg6
(dp114
sg14
I9
sbssg14
g96
sbsVdoc
p115
(isym
String
p116
(dp117
g2
(lp118
sg4
S'string'
p119
sg6
(dp120
sg14
Vcontrol register #1
p121
sbsVM
p122
(isym
Reg
p123
(dp124
g2
(lp125
sg4
S'reg'
p126
sg6
(dp127
Vdoc
p128
(isym
String
p129
(dp130
g2
(lp131
sg4
S'string'
p132
sg6
(dp133
sg14
V9 bit mode
p134
sbsVbit
p135
(isym
Integer
p136
(dp137
g2
(lp138
sg4
S'integer'
p139
sg6
(dp140
sg14
I12
sbssg14
g122
sbsVRE
p141
(isym
Reg
p142
(dp143
g2
(lp144
sg4
S'reg'
p145
sg6
(dp146
Vdoc
p147
(isym
String
p148
(dp149
g2
(lp150
sg4
S'string'
p151
sg6
(dp152
sg14
VReceive Enable
p153
sbsVbit
p154
(isym
Integer
p155
(dp156
g2
(lp157
sg4
S'integer'
p158
sg6
(dp159
sg14
I2
sbssg14
g141
sbsVWAKE
p160
(isym
Reg
p161
(dp162
g2
(lp163
sg4
S'reg'
p164
sg6
(dp165
Vdoc
p166
(isym
String
p167
(dp168
g2
(lp169
sg4
S'string'
p170
sg6
(dp171
sg14
Vfrom sleep
p172
sbsVbit
p173
(isym
Integer
p174
(dp175
g2
(lp176
sg4
S'integer'
p177
sg6
(dp178
sg14
I11
sbssg14
g160
sbsVUE
p179
(isym
Reg
p180
(dp181
g2
(lp182
sg4
S'reg'
p183
sg6
(dp184
Vdoc
p185
(isym
String
p186
(dp187
g2
(lp188
sg4
S'string'
p189
sg6
(dp190
sg14
VUart Enable
p191
sbsVbit
p192
(isym
Integer
p193
(dp194
g2
(lp195
sg4
S'integer'
p196
sg6
(dp197
sg14
I13
sbssg14
VUE
p198
sbsVTE
p199
(isym
Reg
p200
(dp201
g2
(lp202
sg4
S'reg'
p203
sg6
(dp204
Vdoc
p205
(isym
String
p206
(dp207
g2
(lp208
sg4
S'string'
p209
sg6
(dp210
sg14
VTransmit Enable
p211
sbsVbit
p212
(isym
Integer
p213
(dp214
g2
(lp215
sg4
S'integer'
p216
sg6
(dp217
sg14
I3
sbssg14
g199
sbsVPCE
p218
(isym
Reg
p219
(dp220
g2
(lp221
sg4
S'reg'
p222
sg6
(dp223
Vdoc
p224
(isym
String
p225
(dp226
g2
(lp227
sg4
S'string'
p228
sg6
(dp229
sg14
VParity Check Enable
p230
sbsVbit
p231
(isym
Integer
p232
(dp233
g2
(lp234
sg4
S'integer'
p235
sg6
(dp236
sg14
I10
sbssg14
g218
sbssg14
g90
sbsVUSART_BRR
p237
(isym
Reg
p238
(dp239
g2
(lp240
sg4
S'reg'
p241
sg6
(dp242
Vdoc
p243
(isym
String
p244
(dp245
g2
(lp246
sg4
S'string'
p247
sg6
(dp248
sg14
Vbit rate
p249
sbssg14
g237
sbsVUSART_SR
p250
(isym
Reg
p251
(dp252
g2
(lp253
sg4
S'reg'
p254
sg6
(dp255
Vdoc
p256
(isym
String
p257
(dp258
g2
(lp259
sg4
S'string'
p260
sg6
(dp261
sg14
VStatus Register
p262
sbsVRXNE
p263
(isym
Reg
p264
(dp265
g2
(lp266
sg4
S'reg'
p267
sg6
(dp268
Vdoc
p269
(isym
String
p270
(dp271
g2
(lp272
sg4
S'string'
p273
sg6
(dp274
sg14
VRead eXtension Not Empty
p275
sbsVbit
p276
(isym
Integer
p277
(dp278
g2
(lp279
sg4
S'integer'
p280
sg6
(dp281
sg14
I5
sbsVbitmask
p282
(isym
Const
p283
(dp284
g2
(lp285
sg4
S'const'
p286
sg6
(dp287
sg14
VUSART_SR_RXNE
p288
sbssg14
g263
sbsVTC
p289
(isym
Reg
p290
(dp291
g2
(lp292
sg4
S'reg'
p293
sg6
(dp294
Vdoc
p295
(isym
String
p296
(dp297
g2
(lp298
sg4
S'string'
p299
sg6
(dp300
sg14
VTransfer Complete
p301
sbsVbit
p302
(isym
Integer
p303
(dp304
g2
(lp305
sg4
S'integer'
p306
sg6
(dp307
sg14
I6
sbsVbitmask
p308
(isym
Const
p309
(dp310
g2
(lp311
sg4
S'const'
p312
sg6
(dp313
sg14
VUSART_SR_TC
p314
sbssg14
g289
sbssg14
g250
sbssg14
g34
sbsVMX_USART1_UART_Init
p315
(isym
Fn
p316
(dp317
g2
(lp318
sg4
S'fn'
p319
sg6
(dp320
sg14
g315
sbssg14
g16
sbsVarch
p321
(isym
Arch
p322
(dp323
g2
(lp324
sg4
S'arch'
p325
sg6
(dp326
sg14
S'arm'
p327
sbsVSTM32L0
p328
(isym
Mcu
p329
(dp330
g2
(lp331
sg4
S'mcu'
p332
sg6
(dp333
sg14
g328
sbsVnvic
p334
(isym
Group
p335
(dp336
g2
(lp337
sg4
S'group'
p338
sg6
(dp339
V__disable_irq
p340
(isym
Fn
p341
(dp342
g2
(lp343
sg4
S'fn'
p344
sg6
(dp345
sg14
g340
sbsV__enable_irq
p346
(isym
Fn
p347
(dp348
g2
(lp349
sg4
S'fn'
p350
sg6
(dp351
sg14
g346
sbsVICER
p352
(isym
Memory
p353
(dp354
g2
(lp355
sg4
S'memory'
p356
sg6
(dp357
sg14
g352
sbsVhandler
p358
(isym
Group
p359
(dp360
g2
(lp361
sg4
S'group'
p362
sg6
(dp363
VUSART3_IRQHandler
p364
(isym
Fn
p365
(dp366
g2
(lp367
sg4
S'fn'
p368
sg6
(dp369
sg14
g364
sbsVUSART1_IRQHandler
p370
(isym
Fn
p371
(dp372
g2
(lp373
sg4
S'fn'
p374
sg6
(dp375
sg14
g370
sbsVUSART2_IRQHandler
p376
(isym
Fn
p377
(dp378
g2
(lp379
sg4
S'fn'
p380
sg6
(dp381
sg14
g376
sbssg14
g358
sbsVISER
p382
(isym
Memory
p383
(dp384
g2
(lp385
sg4
S'memory'
p386
sg6
(dp387
sg14
g382
sbssg14
g334
sbsVinit
p388
(isym
Symbol
p389
(dp390
g2
(lp391
sg4
S'symbol'
p392
sg6
(dp393
VMX_TIM4_Init
p394
(isym
Fn
p395
(dp396
g2
(lp397
sg4
S'fn'
p398
sg6
(dp399
sg14
g394
sbsVHAL_Init
p400
(isym
Fn
p401
(dp402
g2
(lp403
sg4
S'fn'
p404
sg6
(dp405
sg14
g400
sbsg315
g316
sVMX_RTC_Init
p406
(isym
Fn
p407
(dp408
g2
(lp409
sg4
S'fn'
p410
sg6
(dp411
sg14
g406
sbsg28
g29
sVMX_ADC1_Init
p412
(isym
Fn
p413
(dp414
g2
(lp415
sg4
S'fn'
p416
sg6
(dp417
sg14
g412
sbsVMX_IWDG_Init
p418
(isym
Fn
p419
(dp420
g2
(lp421
sg4
S'fn'
p422
sg6
(dp423
sg14
g418
sbsVMX_GPIO_Init
p424
(isym
Fn
p425
(dp426
g2
(lp427
sg4
S'fn'
p428
sg6
(dp429
sg14
g424
sbsg22
g23
sVmain
p430
(isym
Fn
p431
(dp432
g2
(lp433
sg4
S'fn'
p434
sg6
(dp435
sg14
g430
sbsVSystemClock_Config
p436
(isym
Fn
p437
(dp438
g2
(lp439
sg4
S'fn'
p440
sg6
(dp441
sg14
g436
sbssg14
g388
sbsVadc
p442
(isym
Group
p443
(dp444
g2
(lp445
sg4
S'group'
p446
sg6
(dp447
g412
g413
ssg14
g442
sbsVSTM32F4
p448
(isym
Mcu
p449
(dp450
g2
(lp451
sg4
S'mcu'
p452
sg6
(dp453
sg14
g448
sbsVgpio
p454
(isym
Group
p455
(dp456
g2
(lp457
sg4
S'group'
p458
sg6
(dp459
sg14
g454
sbsVSTM32F0
p460
(isym
Mcu
p461
(dp462
g2
(lp463
sg4
S'mcu'
p464
sg6
(dp465
sg14
g460
sbsVSTM32F1
p466
(isym
Mcu
p467
(dp468
g2
(lp469
sg4
S'mcu'
p470
sg6
(dp471
VSTM32F103
p472
(isym
Mcu
p473
(dp474
g2
(lp475
sg4
S'mcu'
p476
sg6
(dp477
VSTM32F103CBTx
p478
(isym
Mcu
p479
(dp480
g2
(lp481
sg4
S'mcu'
p482
sg6
(dp483
Vsuper
p484
g473
sVRAM
p485
(isym
Integer
p486
(dp487
g2
(lp488
sg4
S'integer'
p489
sg6
(dp490
Vunit
p491
(isym
Symbol
p492
(dp493
g2
(lp494
sg4
S'symbol'
p495
sg6
(dp496
sg14
VKb
p497
sbssg14
I20
sbsVFLASH
p498
(isym
Integer
p499
(dp500
g2
(lp501
sg4
S'integer'
p502
sg6
(dp503
Vunit
p504
(isym
Symbol
p505
(dp506
g2
(lp507
sg4
S'symbol'
p508
sg6
(dp509
sg14
VKb
p510
sbssg14
I128
sbssg14
g478
sbsVsuper
p511
g467
ssg14
g472
sbsVsuper
p512
(isym
Mcu
p513
(dp514
g2
(lp515
sg4
S'mcu'
p516
sg6
g7
sg14
S'STM32'
p517
sbssg14
g466
sbsVdsp
p518
(isym
Group
p519
(dp520
g2
(lp521
sg4
S'group'
p522
sg6
(dp523
g442
g443
ssg14
g518
sbssg14
S'STM32'
p524
sb.