(dp0
VRAM
p1
(isym
Integer
p2
(dp3
S'nest'
p4
(lp5
sS'type'
p6
S'integer'
p7
sS'attr'
p8
(dp9
Vunit
p10
(isym
Symbol
p11
(dp12
g4
(lp13
sg6
S'symbol'
p14
sg8
(dp15
sS'value'
p16
VKb
p17
sbssg16
I20
sbsVFLASH
p18
(isym
Integer
p19
(dp20
g4
(lp21
sg6
S'integer'
p22
sg8
(dp23
Vunit
p24
(isym
Symbol
p25
(dp26
g4
(lp27
sg6
S'symbol'
p28
sg8
(dp29
sg16
VKb
p30
sbssg16
I128
sbs.