(dp0
VSTM32F103
p1
(isym
Mcu
p2
(dp3
S'nest'
p4
(lp5
sS'type'
p6
S'mcu'
p7
sS'attr'
p8
(dp9
sS'value'
p10
g1
sbsVSTM32F103CBTx
p11
(isym
Mcu
p12
(dp13
g4
(lp14
sg6
S'mcu'
p15
sg8
(dp16
sg10
g11
sbsVarch
p17
(isym
Arch
p18
(dp19
g4
(lp20
sg6
S'arch'
p21
sg8
(dp22
sg10
S'arm'
p23
sbsVSTM32F1
p24
(isym
Mcu
p25
(dp26
g4
(lp27
sg6
S'mcu'
p28
sg8
(dp29
sg10
g24
sbs.