(isym
Mcu
p0
(dp1
S'nest'
p2
(lp3
sS'type'
p4
S'mcu'
p5
sS'attr'
p6
(dp7
Vuart
p8
(isym
Group
p9
(dp10
g2
(lp11
sg4
S'group'
p12
sg6
(dp13
VMX_USART1_UART_Init
p14
(isym
Fn
p15
(dp16
g2
(lp17
sg4
S'fn'
p18
sg6
(dp19
sS'value'
p20
g14
sbssg20
g8
sbsVSTM32F0
p21
(isym
Mcu
p22
(dp23
g2
(lp24
sg4
S'mcu'
p25
sg6
(dp26
sg20
g21
sbsVSTM32L0
p27
(isym
Mcu
p28
(dp29
g2
(lp30
sg4
S'mcu'
p31
sg6
(dp32
sg20
g27
sbsVinit
p33
(isym
Symbol
p34
(dp35
g2
(lp36
sg4
S'symbol'
p37
sg6
(dp38
VMX_TIM4_Init
p39
(isym
Fn
p40
(dp41
g2
(lp42
sg4
S'fn'
p43
sg6
(dp44
sg20
g39
sbsVHAL_Init
p45
(isym
Fn
p46
(dp47
g2
(lp48
sg4
S'fn'
p49
sg6
(dp50
sg20
g45
sbsg14
g15
sVMX_RTC_Init
p51
(isym
Fn
p52
(dp53
g2
(lp54
sg4
S'fn'
p55
sg6
(dp56
sg20
g51
sbsVMX_USART3_UART_Init
p57
(isym
Fn
p58
(dp59
g2
(lp60
sg4
S'fn'
p61
sg6
(dp62
sg20
g57
sbsVSystemClock_Config
p63
(isym
Fn
p64
(dp65
g2
(lp66
sg4
S'fn'
p67
sg6
(dp68
sg20
g63
sbsVMX_IWDG_Init
p69
(isym
Fn
p70
(dp71
g2
(lp72
sg4
S'fn'
p73
sg6
(dp74
sg20
g69
sbsVMX_GPIO_Init
p75
(isym
Fn
p76
(dp77
g2
(lp78
sg4
S'fn'
p79
sg6
(dp80
sg20
g75
sbsVMX_USART2_UART_Init
p81
(isym
Fn
p82
(dp83
g2
(lp84
sg4
S'fn'
p85
sg6
(dp86
sg20
g81
sbsVmain
p87
(isym
Fn
p88
(dp89
g2
(lp90
sg4
S'fn'
p91
sg6
(dp92
sg20
g87
sbsVMX_ADC1_Init
p93
(isym
Fn
p94
(dp95
g2
(lp96
sg4
S'fn'
p97
sg6
(dp98
sg20
g93
sbssg20
g33
sbsVadc
p99
(isym
Group
p100
(dp101
g2
(lp102
sg4
S'group'
p103
sg6
(dp104
sg20
g99
sbsVSTM32F4
p105
(isym
Mcu
p106
(dp107
g2
(lp108
sg4
S'mcu'
p109
sg6
(dp110
sg20
g105
sbsVgpio
p111
(isym
Group
p112
(dp113
g2
(lp114
sg4
S'group'
p115
sg6
(dp116
sg20
g111
sbsVarch
p117
(isym
Arch
p118
(dp119
g2
(lp120
sg4
S'arch'
p121
sg6
(dp122
sg20
S'arm'
p123
sbsVSTM32F1
p124
(isym
Mcu
p125
(dp126
g2
(lp127
sg4
S'mcu'
p128
sg6
(dp129
VSTM32F103
p130
(isym
Mcu
p131
(dp132
g2
(lp133
sg4
S'mcu'
p134
sg6
(dp135
VSTM32F103CBTx
p136
(isym
Mcu
p137
(dp138
g2
(lp139
sg4
S'mcu'
p140
sg6
(dp141
VRAM
p142
(isym
Integer
p143
(dp144
g2
(lp145
sg4
S'integer'
p146
sg6
(dp147
Vunit
p148
(isym
Symbol
p149
(dp150
g2
(lp151
sg4
S'symbol'
p152
sg6
(dp153
sg20
VKb
p154
sbssg20
I20
sbsVFLASH
p155
(isym
Integer
p156
(dp157
g2
(lp158
sg4
S'integer'
p159
sg6
(dp160
Vunit
p161
(isym
Symbol
p162
(dp163
g2
(lp164
sg4
S'symbol'
p165
sg6
(dp166
sg20
VKb
p167
sbssg20
I128
sbssg20
g136
sbssg20
g130
sbssg20
g124
sbsVdsp
p168
(isym
Group
p169
(dp170
g2
(lp171
sg4
S'group'
p172
sg6
(dp173
sg20
g168
sbssg20
S'STM32'
p174
sb.