(isym
Mcu
p0
(dp1
S'nest'
p2
(lp3
sS'type'
p4
S'mcu'
p5
sS'attr'
p6
(dp7
VRAM
p8
(isym
Integer
p9
(dp10
g2
(lp11
sg4
S'integer'
p12
sg6
(dp13
Vunit
p14
(isym
Symbol
p15
(dp16
g2
(lp17
sg4
S'symbol'
p18
sg6
(dp19
sS'value'
p20
VKb
p21
sbssg20
I20
sbsVFLASH
p22
(isym
Integer
p23
(dp24
g2
(lp25
sg4
S'integer'
p26
sg6
(dp27
Vunit
p28
(isym
Symbol
p29
(dp30
g2
(lp31
sg4
S'symbol'
p32
sg6
(dp33
sg20
VKb
p34
sbssg20
I128
sbssg20
VSTM32F103CBTx
p35
sb.