(isym
Mcu
p0
(dp1
S'nest'
p2
(lp3
sS'type'
p4
S'mcu'
p5
sS'attr'
p6
(dp7
VSTM32F103
p8
(isym
Symbol
p9
(dp10
g2
(lp11
sg4
S'symbol'
p12
sg6
(dp13
sS'value'
p14
g8
sbsVSTM32F103CBTx
p15
(isym
Symbol
p16
(dp17
g2
(lp18
sg4
S'symbol'
p19
sg6
(dp20
sg14
VSTM32F103CBTx
p21
sbsVSTM32F1
p22
(isym
Symbol
p23
(dp24
g2
(lp25
sg4
S'symbol'
p26
sg6
(dp27
sg14
g22
sbssg14
S'STM32'
p28
sb.