(isym
Mcu
p0
(dp1
S'nest'
p2
(lp3
sS'type'
p4
S'mcu'
p5
sS'attr'
p6
(dp7
VSTM32F103
p8
(isym
Mcu
p9
(dp10
g2
(lp11
sg4
S'mcu'
p12
sg6
(dp13
sS'value'
p14
g8
sbsVSTM32F103CBTx
p15
(isym
Mcu
p16
(dp17
g2
(lp18
sg4
S'mcu'
p19
sg6
(dp20
sg14
g15
sbsVarch
p21
(isym
Arch
p22
(dp23
g2
(lp24
sg4
S'arch'
p25
sg6
(dp26
sg14
S'arm'
p27
sbsVSTM32F1
p28
(isym
Mcu
p29
(dp30
g2
(lp31
sg4
S'mcu'
p32
sg6
(dp33
sg14
g28
sbssg14
S'STM32'
p34
sb.