(isym
Mcu
p0
(dp1
S'nest'
p2
(lp3
sS'type'
p4
S'mcu'
p5
sS'attr'
p6
(dp7
VHAL
p8
(isym
Lib
p9
(dp10
g2
(lp11
sg4
S'lib'
p12
sg6
(dp13
sS'value'
p14
VSTM32HAL
p15
sbsVuart
p16
(isym
Group
p17
(dp18
g2
(lp19
sg4
S'group'
p20
sg6
(dp21
Vreg
p22
(isym
Group
p23
(dp24
g2
(lp25
sg4
S'group'
p26
sg6
(dp27
VUSART_CR2
p28
(isym
Reg
p29
(dp30
g2
(lp31
sg4
S'reg'
p32
sg6
(dp33
Vdoc
p34
(isym
String
p35
(dp36
g2
(lp37
sg4
S'string'
p38
sg6
(dp39
sg14
Vcontrol register #2
p40
sbsVSTOP1
p41
(isym
Reg
p42
(dp43
g2
(lp44
sg4
S'reg'
p45
sg6
(dp46
Vbit
p47
(isym
Integer
p48
(dp49
g2
(lp50
sg4
S'integer'
p51
sg6
(dp52
sg14
I13
sbssg14
g41
sbsVSTOP0
p53
(isym
Reg
p54
(dp55
g2
(lp56
sg4
S'reg'
p57
sg6
(dp58
Vbit
p59
(isym
Integer
p60
(dp61
g2
(lp62
sg4
S'integer'
p63
sg6
(dp64
sg14
I12
sbssg14
g53
sbssg14
g28
sbsVUSART_DR
p65
(isym
Reg
p66
(dp67
g2
(lp68
sg4
S'reg'
p69
sg6
(dp70
Vdoc
p71
(isym
String
p72
(dp73
g2
(lp74
sg4
S'string'
p75
sg6
(dp76
sg14
VData Register
p77
sbssg14
g65
sbsVUSART_CR1
p78
(isym
Reg
p79
(dp80
g2
(lp81
sg4
S'reg'
p82
sg6
(dp83
VPS
p84
(isym
Reg
p85
(dp86
g2
(lp87
sg4
S'reg'
p88
sg6
(dp89
Vdoc
p90
(isym
String
p91
(dp92
g2
(lp93
sg4
S'string'
p94
sg6
(dp95
sg14
VEven/Od parity
p96
sbsVbit
p97
(isym
Integer
p98
(dp99
g2
(lp100
sg4
S'integer'
p101
sg6
(dp102
sg14
I9
sbssg14
g84
sbsVdoc
p103
(isym
String
p104
(dp105
g2
(lp106
sg4
S'string'
p107
sg6
(dp108
sg14
Vcontrol register #1
p109
sbsVM
p110
(isym
Reg
p111
(dp112
g2
(lp113
sg4
S'reg'
p114
sg6
(dp115
Vdoc
p116
(isym
String
p117
(dp118
g2
(lp119
sg4
S'string'
p120
sg6
(dp121
sg14
V9 bit mode
p122
sbsVbit
p123
(isym
Integer
p124
(dp125
g2
(lp126
sg4
S'integer'
p127
sg6
(dp128
sg14
I12
sbssg14
g110
sbsVRE
p129
(isym
Reg
p130
(dp131
g2
(lp132
sg4
S'reg'
p133
sg6
(dp134
Vdoc
p135
(isym
String
p136
(dp137
g2
(lp138
sg4
S'string'
p139
sg6
(dp140
sg14
VReceive Enable
p141
sbsVbit
p142
(isym
Integer
p143
(dp144
g2
(lp145
sg4
S'integer'
p146
sg6
(dp147
sg14
I2
sbssg14
g129
sbsVWAKE
p148
(isym
Reg
p149
(dp150
g2
(lp151
sg4
S'reg'
p152
sg6
(dp153
Vdoc
p154
(isym
String
p155
(dp156
g2
(lp157
sg4
S'string'
p158
sg6
(dp159
sg14
Vfrom sleep
p160
sbsVbit
p161
(isym
Integer
p162
(dp163
g2
(lp164
sg4
S'integer'
p165
sg6
(dp166
sg14
I11
sbssg14
g148
sbsVUE
p167
(isym
Reg
p168
(dp169
g2
(lp170
sg4
S'reg'
p171
sg6
(dp172
Vdoc
p173
(isym
String
p174
(dp175
g2
(lp176
sg4
S'string'
p177
sg6
(dp178
sg14
VUart Enable
p179
sbsVbit
p180
(isym
Integer
p181
(dp182
g2
(lp183
sg4
S'integer'
p184
sg6
(dp185
sg14
I13
sbssg14
VUE
p186
sbsVTE
p187
(isym
Reg
p188
(dp189
g2
(lp190
sg4
S'reg'
p191
sg6
(dp192
Vdoc
p193
(isym
String
p194
(dp195
g2
(lp196
sg4
S'string'
p197
sg6
(dp198
sg14
VTransmit Enable
p199
sbsVbit
p200
(isym
Integer
p201
(dp202
g2
(lp203
sg4
S'integer'
p204
sg6
(dp205
sg14
I3
sbssg14
g187
sbsVPCE
p206
(isym
Reg
p207
(dp208
g2
(lp209
sg4
S'reg'
p210
sg6
(dp211
Vdoc
p212
(isym
String
p213
(dp214
g2
(lp215
sg4
S'string'
p216
sg6
(dp217
sg14
VParity Check Enable
p218
sbsVbit
p219
(isym
Integer
p220
(dp221
g2
(lp222
sg4
S'integer'
p223
sg6
(dp224
sg14
I10
sbssg14
g206
sbssg14
g78
sbsVUSART_BRR
p225
(isym
Reg
p226
(dp227
g2
(lp228
sg4
S'reg'
p229
sg6
(dp230
Vdoc
p231
(isym
String
p232
(dp233
g2
(lp234
sg4
S'string'
p235
sg6
(dp236
sg14
Vbit rate
p237
sbssg14
g225
sbsVUSART_SR
p238
(isym
Reg
p239
(dp240
g2
(lp241
sg4
S'reg'
p242
sg6
(dp243
Vdoc
p244
(isym
String
p245
(dp246
g2
(lp247
sg4
S'string'
p248
sg6
(dp249
sg14
VStatus Register
p250
sbsVRXNE
p251
(isym
Reg
p252
(dp253
g2
(lp254
sg4
S'reg'
p255
sg6
(dp256
Vdoc
p257
(isym
String
p258
(dp259
g2
(lp260
sg4
S'string'
p261
sg6
(dp262
sg14
VRead eXtension Not Empty
p263
sbsVbit
p264
(isym
Integer
p265
(dp266
g2
(lp267
sg4
S'integer'
p268
sg6
(dp269
sg14
I5
sbssg14
g251
sbsVTC
p270
(isym
Reg
p271
(dp272
g2
(lp273
sg4
S'reg'
p274
sg6
(dp275
Vdoc
p276
(isym
String
p277
(dp278
g2
(lp279
sg4
S'string'
p280
sg6
(dp281
sg14
VTransfer Complete
p282
sbsVbit
p283
(isym
Integer
p284
(dp285
g2
(lp286
sg4
S'integer'
p287
sg6
(dp288
sg14
I6
sbssg14
g270
sbssg14
g238
sbssg14
g22
sbsVMX_USART2_UART_Init
p289
(isym
Fn
p290
(dp291
g2
(lp292
sg4
S'fn'
p293
sg6
(dp294
sg14
g289
sbsVMX_USART1_UART_Init
p295
(isym
Fn
p296
(dp297
g2
(lp298
sg4
S'fn'
p299
sg6
(dp300
sg14
g295
sbsVMX_USART3_UART_Init
p301
(isym
Fn
p302
(dp303
g2
(lp304
sg4
S'fn'
p305
sg6
(dp306
sg14
g301
sbssg14
g16
sbsVSTM32F0
p307
(isym
Mcu
p308
(dp309
g2
(lp310
sg4
S'mcu'
p311
sg6
(dp312
sg14
g307
sbsVSTM32L0
p313
(isym
Mcu
p314
(dp315
g2
(lp316
sg4
S'mcu'
p317
sg6
(dp318
sg14
g313
sbsVinit
p319
(isym
Symbol
p320
(dp321
g2
(lp322
sg4
S'symbol'
p323
sg6
(dp324
VMX_TIM4_Init
p325
(isym
Fn
p326
(dp327
g2
(lp328
sg4
S'fn'
p329
sg6
(dp330
sg14
g325
sbsVHAL_Init
p331
(isym
Fn
p332
(dp333
g2
(lp334
sg4
S'fn'
p335
sg6
(dp336
sg14
g331
sbsg295
g296
sVMX_RTC_Init
p337
(isym
Fn
p338
(dp339
g2
(lp340
sg4
S'fn'
p341
sg6
(dp342
sg14
g337
sbsg301
g302
sVSystemClock_Config
p343
(isym
Fn
p344
(dp345
g2
(lp346
sg4
S'fn'
p347
sg6
(dp348
sg14
g343
sbsVMX_IWDG_Init
p349
(isym
Fn
p350
(dp351
g2
(lp352
sg4
S'fn'
p353
sg6
(dp354
sg14
g349
sbsVMX_GPIO_Init
p355
(isym
Fn
p356
(dp357
g2
(lp358
sg4
S'fn'
p359
sg6
(dp360
sg14
g355
sbsg289
g290
sVmain
p361
(isym
Fn
p362
(dp363
g2
(lp364
sg4
S'fn'
p365
sg6
(dp366
sg14
g361
sbsVMX_ADC1_Init
p367
(isym
Fn
p368
(dp369
g2
(lp370
sg4
S'fn'
p371
sg6
(dp372
sg14
g367
sbssg14
g319
sbsVadc
p373
(isym
Group
p374
(dp375
g2
(lp376
sg4
S'group'
p377
sg6
(dp378
g367
g368
ssg14
g373
sbsVSTM32F4
p379
(isym
Mcu
p380
(dp381
g2
(lp382
sg4
S'mcu'
p383
sg6
(dp384
sg14
g379
sbsVgpio
p385
(isym
Group
p386
(dp387
g2
(lp388
sg4
S'group'
p389
sg6
(dp390
sg14
g385
sbsVarch
p391
(isym
Arch
p392
(dp393
g2
(lp394
sg4
S'arch'
p395
sg6
(dp396
sg14
S'arm'
p397
sbsVSTM32F1
p398
(isym
Mcu
p399
(dp400
g2
(lp401
sg4
S'mcu'
p402
sg6
(dp403
VSTM32F103
p404
(isym
Mcu
p405
(dp406
g2
(lp407
sg4
S'mcu'
p408
sg6
(dp409
VSTM32F103CBTx
p410
(isym
Mcu
p411
(dp412
g2
(lp413
sg4
S'mcu'
p414
sg6
(dp415
VRAM
p416
(isym
Integer
p417
(dp418
g2
(lp419
sg4
S'integer'
p420
sg6
(dp421
Vunit
p422
(isym
Symbol
p423
(dp424
g2
(lp425
sg4
S'symbol'
p426
sg6
(dp427
sg14
VKb
p428
sbssg14
I20
sbsVFLASH
p429
(isym
Integer
p430
(dp431
g2
(lp432
sg4
S'integer'
p433
sg6
(dp434
Vunit
p435
(isym
Symbol
p436
(dp437
g2
(lp438
sg4
S'symbol'
p439
sg6
(dp440
sg14
VKb
p441
sbssg14
I128
sbsVsuper
p442
g405
ssg14
g410
sbsVsuper
p443
g399
ssg14
g404
sbsVsuper
p444
(isym
Mcu
p445
(dp446
g2
(lp447
sg4
S'mcu'
p448
sg6
g7
sg14
S'STM32'
p449
sbssg14
g398
sbsVdsp
p450
(isym
Group
p451
(dp452
g2
(lp453
sg4
S'group'
p454
sg6
(dp455
g373
g374
ssg14
g450
sbssg14
S'STM32'
p456
sb.