(dp0
VSTM32F103
p1
(isym
Symbol
p2
(dp3
S'nest'
p4
(lp5
sS'type'
p6
S'symbol'
p7
sS'attr'
p8
(dp9
sS'value'
p10
g1
sbsVSTM32F103CBTx
p11
(isym
Symbol
p12
(dp13
g4
(lp14
sg6
S'symbol'
p15
sg8
(dp16
sg10
VSTM32F103CBTx
p17
sbsVSTM32F1
p18
(isym
Symbol
p19
(dp20
g4
(lp21
sg6
S'symbol'
p22
sg8
(dp23
sg10
g18
sbs.