(isym
Mcu
p0
(dp1
S'nest'
p2
(lp3
sS'type'
p4
S'mcu'
p5
sS'attr'
p6
(dp7
VHAL
p8
(isym
Lib
p9
(dp10
g2
(lp11
sg4
S'lib'
p12
sg6
(dp13
sS'value'
p14
VSTM32HAL
p15
sbsVuart
p16
(isym
Group
p17
(dp18
g2
(lp19
sg4
S'group'
p20
sg6
(dp21
VMX_USART2_UART_Init
p22
(isym
Fn
p23
(dp24
g2
(lp25
sg4
S'fn'
p26
sg6
(dp27
sg14
g22
sbsVMX_USART1_UART_Init
p28
(isym
Fn
p29
(dp30
g2
(lp31
sg4
S'fn'
p32
sg6
(dp33
sg14
g28
sbsVMX_USART3_UART_Init
p34
(isym
Fn
p35
(dp36
g2
(lp37
sg4
S'fn'
p38
sg6
(dp39
sg14
g34
sbssg14
g16
sbsVarch
p40
(isym
Arch
p41
(dp42
g2
(lp43
sg4
S'arch'
p44
sg6
(dp45
sg14
S'arm'
p46
sbsVSTM32L0
p47
(isym
Mcu
p48
(dp49
g2
(lp50
sg4
S'mcu'
p51
sg6
(dp52
sg14
g47
sbsVinit
p53
(isym
Symbol
p54
(dp55
g2
(lp56
sg4
S'symbol'
p57
sg6
(dp58
VMX_TIM4_Init
p59
(isym
Fn
p60
(dp61
g2
(lp62
sg4
S'fn'
p63
sg6
(dp64
sg14
g59
sbsVHAL_Init
p65
(isym
Fn
p66
(dp67
g2
(lp68
sg4
S'fn'
p69
sg6
(dp70
sg14
g65
sbsg28
g29
sVMX_RTC_Init
p71
(isym
Fn
p72
(dp73
g2
(lp74
sg4
S'fn'
p75
sg6
(dp76
sg14
g71
sbsg34
g35
sVMX_ADC1_Init
p77
(isym
Fn
p78
(dp79
g2
(lp80
sg4
S'fn'
p81
sg6
(dp82
sg14
g77
sbsVMX_IWDG_Init
p83
(isym
Fn
p84
(dp85
g2
(lp86
sg4
S'fn'
p87
sg6
(dp88
sg14
g83
sbsVMX_GPIO_Init
p89
(isym
Fn
p90
(dp91
g2
(lp92
sg4
S'fn'
p93
sg6
(dp94
sg14
g89
sbsg22
g23
sVmain
p95
(isym
Fn
p96
(dp97
g2
(lp98
sg4
S'fn'
p99
sg6
(dp100
sg14
g95
sbsVSystemClock_Config
p101
(isym
Fn
p102
(dp103
g2
(lp104
sg4
S'fn'
p105
sg6
(dp106
sg14
g101
sbssg14
g53
sbsVadc
p107
(isym
Group
p108
(dp109
g2
(lp110
sg4
S'group'
p111
sg6
(dp112
g77
g78
ssg14
g107
sbsVSTM32F4
p113
(isym
Mcu
p114
(dp115
g2
(lp116
sg4
S'mcu'
p117
sg6
(dp118
sg14
g113
sbsVgpio
p119
(isym
Group
p120
(dp121
g2
(lp122
sg4
S'group'
p123
sg6
(dp124
sg14
g119
sbsVSTM32F0
p125
(isym
Mcu
p126
(dp127
g2
(lp128
sg4
S'mcu'
p129
sg6
(dp130
sg14
g125
sbsVSTM32F1
p131
(isym
Mcu
p132
(dp133
g2
(lp134
sg4
S'mcu'
p135
sg6
(dp136
VSTM32F103
p137
(isym
Mcu
p138
(dp139
g2
(lp140
sg4
S'mcu'
p141
sg6
(dp142
VSTM32F103CBTx
p143
(isym
Mcu
p144
(dp145
g2
(lp146
sg4
S'mcu'
p147
sg6
(dp148
VFLASH
p149
(isym
Integer
p150
(dp151
g2
(lp152
sg4
S'integer'
p153
sg6
(dp154
Vunit
p155
(isym
Symbol
p156
(dp157
g2
(lp158
sg4
S'symbol'
p159
sg6
(dp160
sg14
VKb
p161
sbssg14
I128
sbsVRAM
p162
(isym
Integer
p163
(dp164
g2
(lp165
sg4
S'integer'
p166
sg6
(dp167
Vunit
p168
(isym
Symbol
p169
(dp170
g2
(lp171
sg4
S'symbol'
p172
sg6
(dp173
sg14
VKb
p174
sbssg14
I20
sbsVsuper
p175
g138
ssg14
g143
sbsVsuper
p176
g132
ssg14
g137
sbsVsuper
p177
(isym
Mcu
p178
(dp179
g2
(lp180
sg4
S'mcu'
p181
sg6
g7
sg14
S'STM32'
p182
sbssg14
g131
sbsVdsp
p183
(isym
Group
p184
(dp185
g2
(lp186
sg4
S'group'
p187
sg6
(dp188
g107
g108
ssg14
g183
sbssg14
S'STM32'
p189
sb.