(isym
Mcu
p0
(dp1
S'nest'
p2
(lp3
sS'type'
p4
S'mcu'
p5
sS'attr'
p6
(dp7
Varch
p8
(isym
Arch
p9
(dp10
g2
(lp11
sg4
S'arch'
p12
sg6
(dp13
sS'value'
p14
S'arm'
p15
sbsVSTM32L0
p16
(isym
Mcu
p17
(dp18
g2
(lp19
sg4
S'mcu'
p20
sg6
(dp21
sg14
g16
sbsVSTM32F4
p22
(isym
Mcu
p23
(dp24
g2
(lp25
sg4
S'mcu'
p26
sg6
(dp27
sg14
g22
sbsVSTM32F0
p28
(isym
Mcu
p29
(dp30
g2
(lp31
sg4
S'mcu'
p32
sg6
(dp33
sg14
g28
sbsVSTM32F1
p34
(isym
Mcu
p35
(dp36
g2
(lp37
sg4
S'mcu'
p38
sg6
(dp39
VSTM32F103
p40
(isym
Mcu
p41
(dp42
g2
(lp43
sg4
S'mcu'
p44
sg6
(dp45
VSTM32F103CBTx
p46
(isym
Mcu
p47
(dp48
g2
(lp49
sg4
S'mcu'
p50
sg6
(dp51
sg14
g46
sbssg14
g40
sbssg14
g34
sbssg14
S'STM32'
p52
sb.