(isym
Mcu
p0
(dp1
S'nest'
p2
(lp3
sS'type'
p4
S'mcu'
p5
sS'attr'
p6
(dp7
Vuart
p8
(isym
Group
p9
(dp10
g2
(lp11
sg4
S'group'
p12
sg6
(dp13
VMX_USART1_UART_Init
p14
(isym
Fn
p15
(dp16
g2
(lp17
sg4
S'fn'
p18
sg6
(dp19
sS'value'
p20
g14
sbssg20
g8
sbsVarch
p21
(isym
Arch
p22
(dp23
g2
(lp24
sg4
S'arch'
p25
sg6
(dp26
sg20
S'arm'
p27
sbsVSTM32L0
p28
(isym
Mcu
p29
(dp30
g2
(lp31
sg4
S'mcu'
p32
sg6
(dp33
sg20
g28
sbsVinit
p34
(isym
Symbol
p35
(dp36
g2
(lp37
sg4
S'symbol'
p38
sg6
(dp39
VMX_TIM4_Init
p40
(isym
Fn
p41
(dp42
g2
(lp43
sg4
S'fn'
p44
sg6
(dp45
sg20
g40
sbsVHAL_Init
p46
(isym
Fn
p47
(dp48
g2
(lp49
sg4
S'fn'
p50
sg6
(dp51
sg20
g46
sbsg14
g15
sVMX_RTC_Init
p52
(isym
Fn
p53
(dp54
g2
(lp55
sg4
S'fn'
p56
sg6
(dp57
sg20
g52
sbsVMX_USART3_UART_Init
p58
(isym
Fn
p59
(dp60
g2
(lp61
sg4
S'fn'
p62
sg6
(dp63
sg20
g58
sbsVMX_ADC1_Init
p64
(isym
Fn
p65
(dp66
g2
(lp67
sg4
S'fn'
p68
sg6
(dp69
sg20
g64
sbsVMX_IWDG_Init
p70
(isym
Fn
p71
(dp72
g2
(lp73
sg4
S'fn'
p74
sg6
(dp75
sg20
g70
sbsVMX_GPIO_Init
p76
(isym
Fn
p77
(dp78
g2
(lp79
sg4
S'fn'
p80
sg6
(dp81
sg20
g76
sbsVMX_USART2_UART_Init
p82
(isym
Fn
p83
(dp84
g2
(lp85
sg4
S'fn'
p86
sg6
(dp87
sg20
g82
sbsVmain
p88
(isym
Fn
p89
(dp90
g2
(lp91
sg4
S'fn'
p92
sg6
(dp93
sg20
g88
sbsVSystemClock_Config
p94
(isym
Fn
p95
(dp96
g2
(lp97
sg4
S'fn'
p98
sg6
(dp99
sg20
g94
sbssg20
g34
sbsVadc
p100
(isym
Group
p101
(dp102
g2
(lp103
sg4
S'group'
p104
sg6
(dp105
sg20
g100
sbsVSTM32F4
p106
(isym
Mcu
p107
(dp108
g2
(lp109
sg4
S'mcu'
p110
sg6
(dp111
sg20
g106
sbsVgpio
p112
(isym
Group
p113
(dp114
g2
(lp115
sg4
S'group'
p116
sg6
(dp117
sg20
g112
sbsVSTM32F0
p118
(isym
Mcu
p119
(dp120
g2
(lp121
sg4
S'mcu'
p122
sg6
(dp123
sg20
g118
sbsVSTM32F1
p124
(isym
Mcu
p125
(dp126
g2
(lp127
sg4
S'mcu'
p128
sg6
(dp129
VSTM32F103
p130
(isym
Mcu
p131
(dp132
g2
(lp133
sg4
S'mcu'
p134
sg6
(dp135
VSTM32F103CBTx
p136
(isym
Mcu
p137
(dp138
g2
(lp139
sg4
S'mcu'
p140
sg6
(dp141
sg20
g136
sbssg20
g130
sbssg20
g124
sbsVdsp
p142
(isym
Group
p143
(dp144
g2
(lp145
sg4
S'group'
p146
sg6
(dp147
sg20
g142
sbssg20
S'STM32'
p148
sb.