(isym
Mcu
p0
(dp1
S'nest'
p2
(lp3
sS'type'
p4
S'mcu'
p5
sS'attr'
p6
(dp7
VHAL
p8
(isym
Lib
p9
(dp10
g2
(lp11
sg4
S'lib'
p12
sg6
(dp13
sS'value'
p14
VSTM32HAL
p15
sbsVuart
p16
(isym
Group
p17
(dp18
g2
(lp19
sg4
S'group'
p20
sg6
(dp21
VMX_USART2_UART_Init
p22
(isym
Fn
p23
(dp24
g2
(lp25
sg4
S'fn'
p26
sg6
(dp27
sg14
g22
sbsVMX_USART3_UART_Init
p28
(isym
Fn
p29
(dp30
g2
(lp31
sg4
S'fn'
p32
sg6
(dp33
sg14
g28
sbsVreg
p34
(isym
Group
p35
(dp36
g2
(lp37
sg4
S'group'
p38
sg6
(dp39
VUSART_CR2
p40
(isym
Reg
p41
(dp42
g2
(lp43
sg4
S'reg'
p44
sg6
(dp45
Vdoc
p46
(isym
String
p47
(dp48
g2
(lp49
sg4
S'string'
p50
sg6
(dp51
sg14
Vcontrol register #2
p52
sbsVSTOP1
p53
(isym
Reg
p54
(dp55
g2
(lp56
sg4
S'reg'
p57
sg6
(dp58
Vbit
p59
(isym
Integer
p60
(dp61
g2
(lp62
sg4
S'integer'
p63
sg6
(dp64
sg14
I13
sbssg14
g53
sbsVSTOP0
p65
(isym
Reg
p66
(dp67
g2
(lp68
sg4
S'reg'
p69
sg6
(dp70
Vbit
p71
(isym
Integer
p72
(dp73
g2
(lp74
sg4
S'integer'
p75
sg6
(dp76
sg14
I12
sbssg14
g65
sbssg14
g40
sbsVUSART_DR
p77
(isym
Reg
p78
(dp79
g2
(lp80
sg4
S'reg'
p81
sg6
(dp82
Vdoc
p83
(isym
String
p84
(dp85
g2
(lp86
sg4
S'string'
p87
sg6
(dp88
sg14
VData Register
p89
sbssg14
g77
sbsVUSART_CR1
p90
(isym
Reg
p91
(dp92
g2
(lp93
sg4
S'reg'
p94
sg6
(dp95
VPS
p96
(isym
Reg
p97
(dp98
g2
(lp99
sg4
S'reg'
p100
sg6
(dp101
Vdoc
p102
(isym
String
p103
(dp104
g2
(lp105
sg4
S'string'
p106
sg6
(dp107
sg14
VEven/Od parity
p108
sbsVbit
p109
(isym
Integer
p110
(dp111
g2
(lp112
sg4
S'integer'
p113
sg6
(dp114
sg14
I9
sbssg14
g96
sbsVdoc
p115
(isym
String
p116
(dp117
g2
(lp118
sg4
S'string'
p119
sg6
(dp120
sg14
Vcontrol register #1
p121
sbsVM
p122
(isym
Reg
p123
(dp124
g2
(lp125
sg4
S'reg'
p126
sg6
(dp127
Vdoc
p128
(isym
String
p129
(dp130
g2
(lp131
sg4
S'string'
p132
sg6
(dp133
sg14
V9 bit mode
p134
sbsVbit
p135
(isym
Integer
p136
(dp137
g2
(lp138
sg4
S'integer'
p139
sg6
(dp140
sg14
I12
sbssg14
g122
sbsVRE
p141
(isym
Reg
p142
(dp143
g2
(lp144
sg4
S'reg'
p145
sg6
(dp146
Vdoc
p147
(isym
String
p148
(dp149
g2
(lp150
sg4
S'string'
p151
sg6
(dp152
sg14
VReceive Enable
p153
sbsVbit
p154
(isym
Integer
p155
(dp156
g2
(lp157
sg4
S'integer'
p158
sg6
(dp159
sg14
I2
sbssg14
g141
sbsVWAKE
p160
(isym
Reg
p161
(dp162
g2
(lp163
sg4
S'reg'
p164
sg6
(dp165
Vdoc
p166
(isym
String
p167
(dp168
g2
(lp169
sg4
S'string'
p170
sg6
(dp171
sg14
Vfrom sleep
p172
sbsVbit
p173
(isym
Integer
p174
(dp175
g2
(lp176
sg4
S'integer'
p177
sg6
(dp178
sg14
I11
sbssg14
g160
sbsVUE
p179
(isym
Reg
p180
(dp181
g2
(lp182
sg4
S'reg'
p183
sg6
(dp184
Vdoc
p185
(isym
String
p186
(dp187
g2
(lp188
sg4
S'string'
p189
sg6
(dp190
sg14
VUart Enable
p191
sbsVbit
p192
(isym
Integer
p193
(dp194
g2
(lp195
sg4
S'integer'
p196
sg6
(dp197
sg14
I13
sbssg14
VUE
p198
sbsVTE
p199
(isym
Reg
p200
(dp201
g2
(lp202
sg4
S'reg'
p203
sg6
(dp204
Vdoc
p205
(isym
String
p206
(dp207
g2
(lp208
sg4
S'string'
p209
sg6
(dp210
sg14
VTransmit Enable
p211
sbsVbit
p212
(isym
Integer
p213
(dp214
g2
(lp215
sg4
S'integer'
p216
sg6
(dp217
sg14
I3
sbssg14
g199
sbsVPCE
p218
(isym
Reg
p219
(dp220
g2
(lp221
sg4
S'reg'
p222
sg6
(dp223
Vdoc
p224
(isym
String
p225
(dp226
g2
(lp227
sg4
S'string'
p228
sg6
(dp229
sg14
VParity Check Enable
p230
sbsVbit
p231
(isym
Integer
p232
(dp233
g2
(lp234
sg4
S'integer'
p235
sg6
(dp236
sg14
I10
sbssg14
g218
sbssg14
g90
sbsVUSART_BRR
p237
(isym
Reg
p238
(dp239
g2
(lp240
sg4
S'reg'
p241
sg6
(dp242
Vdoc
p243
(isym
String
p244
(dp245
g2
(lp246
sg4
S'string'
p247
sg6
(dp248
sg14
Vbit rate
p249
sbssg14
g237
sbsVUSART_SR
p250
(isym
Reg
p251
(dp252
g2
(lp253
sg4
S'reg'
p254
sg6
(dp255
Vdoc
p256
(isym
String
p257
(dp258
g2
(lp259
sg4
S'string'
p260
sg6
(dp261
sg14
VStatus Register
p262
sbsVbitmask
p263
(isym
Const
p264
(dp265
g2
(lp266
sg4
S'const'
p267
sg6
(dp268
sg14
VUSART_SR_RXNE
p269
sbsVRXNE
p270
(isym
Reg
p271
(dp272
g2
(lp273
sg4
S'reg'
p274
sg6
(dp275
Vdoc
p276
(isym
String
p277
(dp278
g2
(lp279
sg4
S'string'
p280
sg6
(dp281
sg14
VRead eXtension Not Empty
p282
sbsVbit
p283
(isym
Integer
p284
(dp285
g2
(lp286
sg4
S'integer'
p287
sg6
(dp288
sg14
I5
sbssg14
g270
sbsVTC
p289
(isym
Reg
p290
(dp291
g2
(lp292
sg4
S'reg'
p293
sg6
(dp294
Vdoc
p295
(isym
String
p296
(dp297
g2
(lp298
sg4
S'string'
p299
sg6
(dp300
sg14
VTransfer Complete
p301
sbsVbit
p302
(isym
Integer
p303
(dp304
g2
(lp305
sg4
S'integer'
p306
sg6
(dp307
sg14
I6
sbssg14
g289
sbssg14
g250
sbssg14
g34
sbsVMX_USART1_UART_Init
p308
(isym
Fn
p309
(dp310
g2
(lp311
sg4
S'fn'
p312
sg6
(dp313
sg14
g308
sbssg14
g16
sbsVarch
p314
(isym
Arch
p315
(dp316
g2
(lp317
sg4
S'arch'
p318
sg6
(dp319
sg14
S'arm'
p320
sbsVSTM32L0
p321
(isym
Mcu
p322
(dp323
g2
(lp324
sg4
S'mcu'
p325
sg6
(dp326
sg14
g321
sbsVinit
p327
(isym
Symbol
p328
(dp329
g2
(lp330
sg4
S'symbol'
p331
sg6
(dp332
VMX_TIM4_Init
p333
(isym
Fn
p334
(dp335
g2
(lp336
sg4
S'fn'
p337
sg6
(dp338
sg14
g333
sbsVHAL_Init
p339
(isym
Fn
p340
(dp341
g2
(lp342
sg4
S'fn'
p343
sg6
(dp344
sg14
g339
sbsg308
g309
sVMX_RTC_Init
p345
(isym
Fn
p346
(dp347
g2
(lp348
sg4
S'fn'
p349
sg6
(dp350
sg14
g345
sbsg28
g29
sVMX_ADC1_Init
p351
(isym
Fn
p352
(dp353
g2
(lp354
sg4
S'fn'
p355
sg6
(dp356
sg14
g351
sbsVMX_IWDG_Init
p357
(isym
Fn
p358
(dp359
g2
(lp360
sg4
S'fn'
p361
sg6
(dp362
sg14
g357
sbsVMX_GPIO_Init
p363
(isym
Fn
p364
(dp365
g2
(lp366
sg4
S'fn'
p367
sg6
(dp368
sg14
g363
sbsg22
g23
sVmain
p369
(isym
Fn
p370
(dp371
g2
(lp372
sg4
S'fn'
p373
sg6
(dp374
sg14
g369
sbsVSystemClock_Config
p375
(isym
Fn
p376
(dp377
g2
(lp378
sg4
S'fn'
p379
sg6
(dp380
sg14
g375
sbssg14
g327
sbsVadc
p381
(isym
Group
p382
(dp383
g2
(lp384
sg4
S'group'
p385
sg6
(dp386
g351
g352
ssg14
g381
sbsVSTM32F4
p387
(isym
Mcu
p388
(dp389
g2
(lp390
sg4
S'mcu'
p391
sg6
(dp392
sg14
g387
sbsVgpio
p393
(isym
Group
p394
(dp395
g2
(lp396
sg4
S'group'
p397
sg6
(dp398
sg14
g393
sbsVSTM32F0
p399
(isym
Mcu
p400
(dp401
g2
(lp402
sg4
S'mcu'
p403
sg6
(dp404
sg14
g399
sbsVSTM32F1
p405
(isym
Mcu
p406
(dp407
g2
(lp408
sg4
S'mcu'
p409
sg6
(dp410
VSTM32F103
p411
(isym
Mcu
p412
(dp413
g2
(lp414
sg4
S'mcu'
p415
sg6
(dp416
VSTM32F103CBTx
p417
(isym
Mcu
p418
(dp419
g2
(lp420
sg4
S'mcu'
p421
sg6
(dp422
Vsuper
p423
g412
sVRAM
p424
(isym
Integer
p425
(dp426
g2
(lp427
sg4
S'integer'
p428
sg6
(dp429
Vunit
p430
(isym
Symbol
p431
(dp432
g2
(lp433
sg4
S'symbol'
p434
sg6
(dp435
sg14
VKb
p436
sbssg14
I20
sbsVFLASH
p437
(isym
Integer
p438
(dp439
g2
(lp440
sg4
S'integer'
p441
sg6
(dp442
Vunit
p443
(isym
Symbol
p444
(dp445
g2
(lp446
sg4
S'symbol'
p447
sg6
(dp448
sg14
VKb
p449
sbssg14
I128
sbssg14
g417
sbsVsuper
p450
g406
ssg14
g411
sbsVsuper
p451
(isym
Mcu
p452
(dp453
g2
(lp454
sg4
S'mcu'
p455
sg6
g7
sg14
S'STM32'
p456
sbssg14
g405
sbsVdsp
p457
(isym
Group
p458
(dp459
g2
(lp460
sg4
S'group'
p461
sg6
(dp462
g381
g382
ssg14
g457
sbssg14
S'STM32'
p463
sb.