(isym
Mcu
p0
(dp1
S'nest'
p2
(lp3
sS'type'
p4
S'mcu'
p5
sS'attr'
p6
(dp7
Vuart
p8
(isym
Group
p9
(dp10
g2
(lp11
sg4
S'group'
p12
sg6
(dp13
VABR
p14
(isym
Symbol
p15
(dp16
g2
(lp17
(isym
Symbol
p18
(dp19
g2
(lp20
sg4
S'symbol'
p21
sg6
(dp22
sS'value'
p23
Vno
p24
sbasg4
S'symbol'
p25
sg6
(dp26
Vdoc
p27
(isym
String
p28
(dp29
g2
(lp30
sg4
S'string'
p31
sg6
(dp32
sg23
Vautomatic baud rate detection
p33
sbssg23
g14
sbssg23
Vuart
p34
sbsVRAM
p35
(isym
Integer
p36
(dp37
g2
(lp38
sg4
S'integer'
p39
sg6
(dp40
Vunit
p41
(isym
Symbol
p42
(dp43
g2
(lp44
sg4
S'symbol'
p45
sg6
(dp46
sg23
VKb
p47
sbssg23
I20
sbsVFLASH
p48
(isym
Integer
p49
(dp50
g2
(lp51
sg4
S'integer'
p52
sg6
(dp53
Vunit
p54
(isym
Symbol
p55
(dp56
g2
(lp57
sg4
S'symbol'
p58
sg6
(dp59
sg23
VKb
p60
sbssg23
I128
sbsVsuper
p61
(isym
Mcu
p62
(dp63
g2
(lp64
sg4
S'mcu'
p65
sg6
(dp66
VSTM32F103CBTx
p67
g0
sVsuper
p68
(isym
Mcu
p69
(dp70
g2
(lp71
sg4
S'mcu'
p72
sg6
(dp73
VSTM32F103
p74
g62
sVsuper
p75
(isym
Mcu
p76
(dp77
g2
(lp78
sg4
S'mcu'
p79
sg6
(dp80
Vuart
p81
(isym
Group
p82
(dp83
g2
(lp84
sg4
S'group'
p85
sg6
(dp86
VMX_USART2_UART_Init
p87
(isym
Fn
p88
(dp89
g2
(lp90
sg4
S'fn'
p91
sg6
(dp92
sg23
g87
sbsVMX_USART1_UART_Init
p93
(isym
Fn
p94
(dp95
g2
(lp96
sg4
S'fn'
p97
sg6
(dp98
sg23
g93
sbsVMX_USART3_UART_Init
p99
(isym
Fn
p100
(dp101
g2
(lp102
sg4
S'fn'
p103
sg6
(dp104
sg23
g99
sbssg23
g81
sbsVSTM32F0
p105
(isym
Mcu
p106
(dp107
g2
(lp108
sg4
S'mcu'
p109
sg6
(dp110
sg23
g105
sbsVSTM32L0
p111
(isym
Mcu
p112
(dp113
g2
(lp114
sg4
S'mcu'
p115
sg6
(dp116
sg23
g111
sbsVinit
p117
(isym
Symbol
p118
(dp119
g2
(lp120
sg4
S'symbol'
p121
sg6
(dp122
VMX_TIM4_Init
p123
(isym
Fn
p124
(dp125
g2
(lp126
sg4
S'fn'
p127
sg6
(dp128
sg23
g123
sbsVHAL_Init
p129
(isym
Fn
p130
(dp131
g2
(lp132
sg4
S'fn'
p133
sg6
(dp134
sg23
g129
sbsg93
g94
sVMX_RTC_Init
p135
(isym
Fn
p136
(dp137
g2
(lp138
sg4
S'fn'
p139
sg6
(dp140
sg23
g135
sbsg99
g100
sVSystemClock_Config
p141
(isym
Fn
p142
(dp143
g2
(lp144
sg4
S'fn'
p145
sg6
(dp146
sg23
g141
sbsVMX_IWDG_Init
p147
(isym
Fn
p148
(dp149
g2
(lp150
sg4
S'fn'
p151
sg6
(dp152
sg23
g147
sbsVMX_GPIO_Init
p153
(isym
Fn
p154
(dp155
g2
(lp156
sg4
S'fn'
p157
sg6
(dp158
sg23
g153
sbsg87
g88
sVmain
p159
(isym
Fn
p160
(dp161
g2
(lp162
sg4
S'fn'
p163
sg6
(dp164
sg23
g159
sbsVMX_ADC1_Init
p165
(isym
Fn
p166
(dp167
g2
(lp168
sg4
S'fn'
p169
sg6
(dp170
sg23
g165
sbssg23
g117
sbsVadc
p171
(isym
Group
p172
(dp173
g2
(lp174
sg4
S'group'
p175
sg6
(dp176
g165
g166
ssg23
g171
sbsVSTM32F4
p177
(isym
Mcu
p178
(dp179
g2
(lp180
sg4
S'mcu'
p181
sg6
(dp182
sg23
g177
sbsVgpio
p183
(isym
Group
p184
(dp185
g2
(lp186
sg4
S'group'
p187
sg6
(dp188
sg23
g183
sbsVarch
p189
(isym
Arch
p190
(dp191
g2
(lp192
sg4
S'arch'
p193
sg6
(dp194
sg23
S'arm'
p195
sbsVSTM32F1
p196
g69
sVdsp
p197
(isym
Group
p198
(dp199
g2
(lp200
sg4
S'group'
p201
sg6
(dp202
g171
g172
ssg23
g197
sbssg23
S'STM32'
p203
sbssg23
g196
sbssg23
g74
sbssg23
g67
sb.