(isym
Os
p0
(dp1
S'nest'
p2
(lp3
sS'type'
p4
S'os'
p5
sS'attr'
p6
(dp7
Vlang
p8
(isym
Lang
p9
(dp10
g2
(lp11
sg4
S'lang'
p12
sg6
(dp13
sS'value'
p14
VJava
p15
sbsVStudio
p16
(isym
Symbol
p17
(dp18
g2
(lp19
sg4
S'symbol'
p20
sg6
(dp21
Vdir
p22
(isym
Dir
p23
(dp24
g2
(lp25
(isym
Dir
p26
(dp27
g2
(lp28
sg4
S'dir'
p29
sg6
(dp30
sg14
VStudio
p31
sbasg4
S'dir'
p32
sg6
(dp33
sg14
VAndroid
p34
sbssg14
g16
sbsVSDK
p35
(isym
Symbol
p36
(dp37
g2
(lp38
sg4
S'symbol'
p39
sg6
(dp40
Vdir
p41
(isym
Dir
p42
(dp43
g2
(lp44
(isym
Dir
p45
(dp46
g2
(lp47
sg4
S'dir'
p48
sg6
(dp49
sg14
VSDK
p50
sbasg4
S'dir'
p51
sg6
(dp52
sg14
VAndroid
p53
sbssg14
VSDK
p54
sbssg14
VANDROID
p55
sb.