(isym
Os
p0
(dp1
S'nest'
p2
(lp3
(isym
Os
p4
(dp5
g2
(lp6
sS'type'
p7
S'os'
p8
sS'attr'
p9
(dp10
Vsuper
p11
(isym
Os
p12
(dp13
g2
g3
sg7
S'os'
p14
sg9
(dp15
sS'value'
p16
VRTOS
p17
sbssg16
VFreeRTOS
p18
sbasg7
S'os'
p19
sg9
(dp20
Vsheduler
p21
(isym
Symbol
p22
(dp23
g2
(lp24
sg7
S'symbol'
p25
sg9
(dp26
sg16
Vsheduler
p27
sbsVtask
p28
(isym
String
p29
(dp30
g2
(lp31
sg7
S'string'
p32
sg9
(dp33
Vstate
p34
(isym
Symbol
p35
(dp36
g2
(lp37
sg7
S'symbol'
p38
sg9
(dp39
VREADY
p40
(isym
Symbol
p41
(dp42
g2
(lp43
sg7
S'symbol'
p44
sg9
(dp45
sg16
g40
sbsVIDLE
p46
(isym
Symbol
p47
(dp48
g2
(lp49
sg7
S'symbol'
p50
sg9
(dp51
sg16
VIDLE
p52
sbsVSUSPEND
p53
(isym
Symbol
p54
(dp55
g2
(lp56
sg7
S'symbol'
p57
sg9
(dp58
sg16
g53
sbsVRUN
p59
(isym
Symbol
p60
(dp61
g2
(lp62
sg7
S'symbol'
p63
sg9
(dp64
sg16
g59
sbsVWAIT
p65
(isym
Symbol
p66
(dp67
g2
(lp68
sg7
S'symbol'
p69
sg9
(dp70
sg16
g65
sbssg16
g34
sbssg16
g28
sbsVdoc
p71
(isym
Url
p72
(dp73
g2
(lp74
sg7
S'url'
p75
sg9
(dp76
sg16
Vhttp://easyelectronics.ru/freertos_manual.html
p77
sbsVtimer
p78
(isym
Symbol
p79
(dp80
g2
(lp81
sg7
S'symbol'
p82
sg9
(dp83
sg16
g78
sbsVqueue
p84
(isym
Symbol
p85
(dp86
g2
(lp87
sg7
S'symbol'
p88
sg9
(dp89
sg16
g84
sbsVmutex
p90
(isym
Symbol
p91
(dp92
g2
(lp93
sg7
S'symbol'
p94
sg9
(dp95
sg16
g90
sbsVsemaphore
p96
(isym
Symbol
p97
(dp98
g2
(lp99
sg7
S'symbol'
p100
sg9
(dp101
sg16
g96
sbssg16
VRTOS
p102
sb.