(isym
Os
p0
(dp1
S'nest'
p2
(lp3
(isym
Os
p4
(dp5
g2
(lp6
sS'type'
p7
S'os'
p8
sS'attr'
p9
(dp10
Vsuper
p11
(isym
Os
p12
(dp13
g2
g3
sg7
S'os'
p14
sg9
(dp15
sS'value'
p16
VRTOS
p17
sbssg16
VFreeRTOS
p18
sbasg7
S'os'
p19
sg9
(dp20
Vqueue
p21
(isym
Symbol
p22
(dp23
g2
(lp24
sg7
S'symbol'
p25
sg9
(dp26
sg16
g21
sbsVtask
p27
(isym
String
p28
(dp29
g2
(lp30
sg7
S'string'
p31
sg9
(dp32
Vstate
p33
(isym
Symbol
p34
(dp35
g2
(lp36
sg7
S'symbol'
p37
sg9
(dp38
VREADY
p39
(isym
Symbol
p40
(dp41
g2
(lp42
sg7
S'symbol'
p43
sg9
(dp44
sg16
g39
sbsVIDLE
p45
(isym
Symbol
p46
(dp47
g2
(lp48
sg7
S'symbol'
p49
sg9
(dp50
sg16
VIDLE
p51
sbsVSUSPEND
p52
(isym
Symbol
p53
(dp54
g2
(lp55
sg7
S'symbol'
p56
sg9
(dp57
sg16
g52
sbsVRUN
p58
(isym
Symbol
p59
(dp60
g2
(lp61
sg7
S'symbol'
p62
sg9
(dp63
sg16
g58
sbsVWAIT
p64
(isym
Symbol
p65
(dp66
g2
(lp67
sg7
S'symbol'
p68
sg9
(dp69
sg16
g64
sbssg16
g33
sbssg16
g27
sbsVdoc
p70
(isym
Url
p71
(dp72
g2
(lp73
sg7
S'url'
p74
sg9
(dp75
sg16
Vhttp://easyelectronics.ru/freertos_manual.html
p76
sbsVtimer
p77
(isym
Symbol
p78
(dp79
g2
(lp80
sg7
S'symbol'
p81
sg9
(dp82
sg16
g77
sbsVsheduler
p83
(isym
Symbol
p84
(dp85
g2
(lp86
sg7
S'symbol'
p87
sg9
(dp88
Vpreemptive
p89
(isym
Symbol
p90
(dp91
g2
(lp92
sg7
S'symbol'
p93
sg9
(dp94
sg16
g89
sbsVcooperative
p95
(isym
Symbol
p96
(dp97
g2
(lp98
sg7
S'symbol'
p99
sg9
(dp100
sg16
g95
sbssg16
Vsheduler
p101
sbsVmutex
p102
(isym
Symbol
p103
(dp104
g2
(lp105
sg7
S'symbol'
p106
sg9
(dp107
sg16
g102
sbsVtimeout
p108
(isym
Symbol
p109
(dp110
g2
(lp111
sg7
S'symbol'
p112
sg9
(dp113
sg16
g108
sbsVsemaphore
p114
(isym
Symbol
p115
(dp116
g2
(lp117
sg7
S'symbol'
p118
sg9
(dp119
sg16
g114
sbssg16
VRTOS
p120
sb.