(isym
Os
p0
(dp1
S'nest'
p2
(lp3
(isym
Os
p4
(dp5
g2
(lp6
sS'type'
p7
S'os'
p8
sS'attr'
p9
(dp10
Vsuper
p11
(isym
Os
p12
(dp13
g2
g3
sg7
S'os'
p14
sg9
(dp15
sS'value'
p16
VRTOS
p17
sbssg16
VFreeRTOS
p18
sbasg7
S'os'
p19
sg9
(dp20
Vsheduler
p21
(isym
Symbol
p22
(dp23
g2
(lp24
sg7
S'symbol'
p25
sg9
(dp26
Vpreemptive
p27
(isym
Symbol
p28
(dp29
g2
(lp30
sg7
S'symbol'
p31
sg9
(dp32
sg16
g27
sbsVcooperative
p33
(isym
Symbol
p34
(dp35
g2
(lp36
sg7
S'symbol'
p37
sg9
(dp38
sg16
g33
sbssg16
Vsheduler
p39
sbsVtask
p40
(isym
String
p41
(dp42
g2
(lp43
sg7
S'string'
p44
sg9
(dp45
Vstate
p46
(isym
Symbol
p47
(dp48
g2
(lp49
sg7
S'symbol'
p50
sg9
(dp51
VREADY
p52
(isym
Symbol
p53
(dp54
g2
(lp55
sg7
S'symbol'
p56
sg9
(dp57
sg16
g52
sbsVIDLE
p58
(isym
Symbol
p59
(dp60
g2
(lp61
sg7
S'symbol'
p62
sg9
(dp63
sg16
VIDLE
p64
sbsVSUSPEND
p65
(isym
Symbol
p66
(dp67
g2
(lp68
sg7
S'symbol'
p69
sg9
(dp70
sg16
g65
sbsVRUN
p71
(isym
Symbol
p72
(dp73
g2
(lp74
sg7
S'symbol'
p75
sg9
(dp76
sg16
g71
sbsVWAIT
p77
(isym
Symbol
p78
(dp79
g2
(lp80
sg7
S'symbol'
p81
sg9
(dp82
sg16
g77
sbssg16
g46
sbssg16
g40
sbsVdoc
p83
(isym
Url
p84
(dp85
g2
(lp86
sg7
S'url'
p87
sg9
(dp88
sg16
Vhttp://easyelectronics.ru/freertos_manual.html
p89
sbsVtimer
p90
(isym
Symbol
p91
(dp92
g2
(lp93
sg7
S'symbol'
p94
sg9
(dp95
sg16
g90
sbsVqueue
p96
(isym
Symbol
p97
(dp98
g2
(lp99
sg7
S'symbol'
p100
sg9
(dp101
sg16
g96
sbsVmutex
p102
(isym
Symbol
p103
(dp104
g2
(lp105
sg7
S'symbol'
p106
sg9
(dp107
sg16
g102
sbsVsemaphore
p108
(isym
Symbol
p109
(dp110
g2
(lp111
sg7
S'symbol'
p112
sg9
(dp113
sg16
g108
sbssg16
VRTOS
p114
sb.