(isym
Symbol
p0
(dp1
S'nest'
p2
(lp3
sS'type'
p4
S'symbol'
p5
sS'attr'
p6
(dp7
Vdoc
p8
(isym
String
p9
(dp10
g2
(lp11
sg4
S'string'
p12
sg6
(dp13
sS'value'
p14
Vplatform
p15
sbsVarch
p16
(isym
Arch
p17
(dp18
g2
(lp19
sg4
S'arch'
p20
sg6
(dp21
sg14
Vavr8
p22
sbssg14
VArduino
p23
sb.