(isym
Symbol
p0
(dp1
S'nest'
p2
(lp3
sS'type'
p4
S'symbol'
p5
sS'attr'
p6
(dp7
VRFID
p8
(isym
Group
p9
(dp10
g2
(lp11
sg4
S'group'
p12
sg6
(dp13
VCL7206D2
p14
(isym
Symbol
p15
(dp16
g2
(lp17
sg4
S'symbol'
p18
sg6
(dp19
Vdatasheet
p20
(isym
String
p21
(dp22
g2
(lp23
sg4
S'string'
p24
sg6
(dp25
sS'value'
p26
Vhttps://www.hopelandrfid.com/uploadfile/downloads/CL7206D2%202-port%20Module.pdf
p27
sbssg26
g14
sbssg26
g8
sbsVcpu
p28
(isym
Cpu
p29
(dp30
g2
(lp31
sg4
S'cpu'
p32
sg6
(dp33
sg26
VAVR8
p34
sbssg26
VARDUINO
p35
sb.