(isym
Symbol
p0
(dp1
S'nest'
p2
(lp3
(isym
Symbol
p4
(dp5
g2
(lp6
sS'type'
p7
S'symbol'
p8
sS'attr'
p9
(dp10
sS'value'
p11
VArduinoDue
p12
sba(isym
Symbol
p13
(dp14
g2
(lp15
sg7
S'symbol'
p16
sg9
(dp17
sg11
VArduinoUno
p18
sba(isym
Symbol
p19
(dp20
g2
(lp21
sg7
S'symbol'
p22
sg9
(dp23
sg11
VArduinoMega128
p24
sba(isym
Symbol
p25
(dp26
g2
(lp27
sg7
S'symbol'
p28
sg9
(dp29
sg11
VArduinoMega2560
p30
sbasg7
S'symbol'
p31
sg9
(dp32
Vdoc
p33
(isym
String
p34
(dp35
g2
(lp36
sg7
S'string'
p37
sg9
(dp38
sg11
Vplatform
p39
sbsVarch
p40
(isym
Arch
p41
(dp42
g2
(lp43
sg7
S'arch'
p44
sg9
(dp45
sg11
Vavr8
p46
sbssg11
VArduino
p47
sb.