(lp0
(isym
Symbol
p1
(dp2
S'nest'
p3
(lp4
sS'type'
p5
S'symbol'
p6
sS'attr'
p7
(dp8
sS'value'
p9
VArduinoDue
p10
sba(isym
Symbol
p11
(dp12
g3
(lp13
sg5
S'symbol'
p14
sg7
(dp15
sg9
VArduinoUno
p16
sba(isym
Symbol
p17
(dp18
g3
(lp19
sg5
S'symbol'
p20
sg7
(dp21
sg9
VArduinoMega128
p22
sba(isym
Symbol
p23
(dp24
g3
(lp25
sg5
S'symbol'
p26
sg7
(dp27
sg9
VArduinoMega2560
p28
sba.