(dp0
Vdoc
p1
(isym
String
p2
(dp3
S'nest'
p4
(lp5
sS'type'
p6
S'string'
p7
sS'attr'
p8
(dp9
sS'value'
p10
Vplatform
p11
sbsVarch
p12
(isym
Arch
p13
(dp14
g4
(lp15
sg6
S'arch'
p16
sg8
(dp17
sg10
Vavr8
p18
sbs.