(dp0
VRFID
p1
(isym
Group
p2
(dp3
S'nest'
p4
(lp5
sS'type'
p6
S'group'
p7
sS'attr'
p8
(dp9
VCL7206D2
p10
(isym
Symbol
p11
(dp12
g4
(lp13
sg6
S'symbol'
p14
sg8
(dp15
Vdatasheet
p16
(isym
String
p17
(dp18
g4
(lp19
sg6
S'string'
p20
sg8
(dp21
sS'value'
p22
Vhttps://www.hopelandrfid.com/uploadfile/downloads/CL7206D2%202-port%20Module.pdf
p23
sbssg22
g10
sbssg22
g1
sbsVcpu
p24
(isym
Cpu
p25
(dp26
g4
(lp27
sg6
S'cpu'
p28
sg8
(dp29
sg22
VAVR8
p30
sbs.