(dp0
VAsyncFSM
p1
(isym
String
p2
(dp3
S'nest'
p4
(lp5
sS'type'
p6
S'string'
p7
sS'attr'
p8
(dp9
Vdoc
p10
(isym
String
p11
(dp12
g4
(lp13
sg6
S'string'
p14
sg8
(dp15
sS'value'
p16
VAsyncronous FSM
p17
sbssg16
g1
sbsVFinite State Machine
p18
(isym
Symbol
p19
(dp20
g4
(lp21
sg6
S'symbol'
p22
sg8
(dp23
sg16
Vdoc
p24
sbsVstate
p25
(isym
String
p26
(dp27
g4
(lp28
sg6
S'string'
p29
sg8
(dp30
Vdoc
p31
(isym
String
p32
(dp33
g4
(lp34
sg6
S'string'
p35
sg8
(dp36
sg16
VFSM state
p37
sbssg16
g25
sbs.