(isym
Symbol
p0
(dp1
S'nest'
p2
(lp3
sS'type'
p4
S'symbol'
p5
sS'attr'
p6
(dp7
VAsyncFSM
p8
(isym
String
p9
(dp10
g2
(lp11
sg4
S'string'
p12
sg6
(dp13
Vdoc
p14
(isym
String
p15
(dp16
g2
(lp17
sg4
S'string'
p18
sg6
(dp19
sS'value'
p20
VAsyncronous FSM
p21
sbssg20
g8
sbsVFinite State Machine
p22
(isym
Symbol
p23
(dp24
g2
(lp25
sg4
S'symbol'
p26
sg6
(dp27
sg20
Vdoc
p28
sbsVstate
p29
(isym
String
p30
(dp31
g2
(lp32
sg4
S'string'
p33
sg6
(dp34
Vdoc
p35
(isym
String
p36
(dp37
g2
(lp38
sg4
S'string'
p39
sg6
(dp40
sg20
VFSM state
p41
sbssg20
g29
sbssg20
VFSM
p42
sb.