(isym
Symbol
p0
(dp1
S'nest'
p2
(lp3
sS'type'
p4
S'symbol'
p5
sS'attr'
p6
(dp7
VFinite State Machine
p8
(isym
Symbol
p9
(dp10
g2
(lp11
sg4
S'symbol'
p12
sg6
(dp13
sS'value'
p14
Vdoc
p15
sbssg14
VFSM
p16
sb.